Archive member included because of file (symbol)

D:\projects\arduino\buildtemp\core\core.a(HardwareSerial.cpp.o)
                              D:\projects\arduino\buildtemp\core\board.cpp.o (HardwareSerial::HardwareSerial(usart_dev*, unsigned char, unsigned char))
D:\projects\arduino\buildtemp\core\core.a(HardwareTimer.cpp.o)
                              D:\projects\arduino\buildtemp\libraries\Mozzi-master\MozziGuts.cpp.o (HardwareTimer::HardwareTimer(unsigned char))
D:\projects\arduino\buildtemp\core\core.a(Print.cpp.o)
                              D:\projects\arduino\buildtemp\core\core.a(HardwareSerial.cpp.o) (Print::write(void const*, unsigned long))
D:\projects\arduino\buildtemp\core\core.a(cxxabi-compat.cpp.o)
                              D:\projects\arduino\buildtemp\core\core.a(HardwareSerial.cpp.o) (__cxa_pure_virtual)
D:\projects\arduino\buildtemp\core\core.a(adc.c.o)
                              D:\projects\arduino\buildtemp\libraries\STM32ADC\STM32ADC.cpp.o (adc_set_extsel)
D:\projects\arduino\buildtemp\core\core.a(adc_f1.c.o)
                              (__irq_adc)
D:\projects\arduino\buildtemp\core\core.a(dma.c.o)
                              D:\projects\arduino\buildtemp\libraries\SPI\SPI.cpp.o (dma_init)
D:\projects\arduino\buildtemp\core\core.a(dma_f1.c.o)
                              D:\projects\arduino\buildtemp\libraries\SPI\SPI.cpp.o (dma_set_priority)
D:\projects\arduino\buildtemp\core\core.a(exc.S.o)
                              (__exc_nmi)
D:\projects\arduino\buildtemp\core\core.a(exti.c.o)
                              (__irq_exti0)
D:\projects\arduino\buildtemp\core\core.a(exti_f1.c.o)
                              D:\projects\arduino\buildtemp\core\core.a(exti.c.o) (exti_select)
D:\projects\arduino\buildtemp\core\core.a(flash.c.o)
                              D:\projects\arduino\buildtemp\core\wirish\boards.cpp.o (flash_set_latency)
D:\projects\arduino\buildtemp\core\core.a(gpio_f1.c.o)
                              D:\projects\arduino\buildtemp\core\wirish\boards_setup.cpp.o (gpio_init_all)
D:\projects\arduino\buildtemp\core\core.a(i2c_f1.c.o)
                              (__irq_i2c1_ev)
D:\projects\arduino\buildtemp\core\core.a(nvic.c.o)
                              D:\projects\arduino\buildtemp\core\core.a(i2c_f1.c.o) (nvic_irq_set_priority)
D:\projects\arduino\buildtemp\core\core.a(rcc.c.o)
                              D:\projects\arduino\buildtemp\libraries\SPI\SPI.cpp.o (rcc_dev_clk)
D:\projects\arduino\buildtemp\core\core.a(rcc_f1.c.o)
                              D:\projects\arduino\buildtemp\core\wirish\boards.cpp.o (rcc_configure_pll)
D:\projects\arduino\buildtemp\core\core.a(spi.c.o)
                              D:\projects\arduino\buildtemp\libraries\SPI\SPI.cpp.o (spi_init)
D:\projects\arduino\buildtemp\core\core.a(spi_f1.c.o)
                              D:\projects\arduino\buildtemp\libraries\SPI\SPI.cpp.o (spi_config_gpios)
D:\projects\arduino\buildtemp\core\core.a(isrs.S.o)
                              (__stm32reservedexception7)
D:\projects\arduino\buildtemp\core\core.a(vector_table.S.o)
                              (__stm32_vector_table)
D:\projects\arduino\buildtemp\core\core.a(systick.c.o)
                              D:\projects\arduino\buildtemp\core\wirish\boards.cpp.o (systick_init)
D:\projects\arduino\buildtemp\core\core.a(timer.c.o)
                              D:\projects\arduino\buildtemp\core\wirish\boards.cpp.o (timer_foreach)
D:\projects\arduino\buildtemp\core\core.a(usart.c.o)
                              D:\projects\arduino\buildtemp\core\core.a(HardwareSerial.cpp.o) (usart_init)
D:\projects\arduino\buildtemp\core\core.a(usart_f1.c.o)
                              D:\projects\arduino\buildtemp\core\core.a(HardwareSerial.cpp.o) (usart_config_gpios_async)
D:\projects\arduino\buildtemp\core\core.a(usart_private.c.o)
                              D:\projects\arduino\buildtemp\core\core.a(usart_f1.c.o) (_usart_clock_freq)
D:\projects\arduino\buildtemp\core\core.a(usb.c.o)
                              (__irq_usb_lp_can_rx0)
D:\projects\arduino\buildtemp\core\core.a(usb_cdcacm.c.o)
                              D:\projects\arduino\buildtemp\core\core.a(usb.c.o) (User_Standard_Requests)
D:\projects\arduino\buildtemp\core\core.a(usb_reg_map.c.o)
                              D:\projects\arduino\buildtemp\core\core.a(usb_cdcacm.c.o) (usb_set_ep_rx_count)
D:\projects\arduino\buildtemp\core\core.a(usb_core.c.o)
                              D:\projects\arduino\buildtemp\core\core.a(usb_cdcacm.c.o) (Standard_GetDescriptorData)
D:\projects\arduino\buildtemp\core\core.a(usb_init.c.o)
                              D:\projects\arduino\buildtemp\core\core.a(usb.c.o) (pInformation)
D:\projects\arduino\buildtemp\core\core.a(usb_mem.c.o)
                              D:\projects\arduino\buildtemp\core\core.a(usb_core.c.o) (UserToPMABufferCopy)
D:\projects\arduino\buildtemp\core\core.a(usb_regs.c.o)
                              D:\projects\arduino\buildtemp\core\core.a(usb_core.c.o) (SetEPTxStatus)
D:\projects\arduino\buildtemp\core\core.a(util.c.o)
                              D:\projects\arduino\buildtemp\core\core.a(exc.S.o) (__error)
D:\projects\arduino\buildtemp\core\core.a(main.cpp.o)
                              (main)
D:\projects\arduino\buildtemp\core\core.a(pwm.cpp.o)
                              D:\projects\arduino\buildtemp\libraries\Mozzi-master\MozziGuts.cpp.o (pwmWrite(unsigned char, unsigned short))
D:\projects\arduino\buildtemp\core\core.a(wirish_digital_f1.cpp.o)
                              D:\projects\arduino\buildtemp\sketch\Stylish.pde.cpp.o (pinMode(unsigned char, WiringPinMode))
D:\projects\arduino\buildtemp\core\core.a(usb_serial.cpp.o)
                              D:\projects\arduino\buildtemp\core\wirish\boards_setup.cpp.o (USBSerial::begin())
D:\projects\arduino\buildtemp\core\core.a(wirish_digital.cpp.o)
                              D:\projects\arduino\buildtemp\sketch\Stylish.pde.cpp.o (digitalRead(unsigned char))
D:\projects\arduino\buildtemp\core\core.a(bkp_f1.c.o)
                              D:\projects\arduino\buildtemp\core\core.a(usb_serial.cpp.o) (bkp_init)
D:\projects\arduino\buildtemp\core\core.a(gpio.c.o)
                              D:\projects\arduino\buildtemp\core\core.a(gpio_f1.c.o) (gpio_init)
D:\projects\arduino\buildtemp\core\core.a(i2c.c.o)
                              D:\projects\arduino\buildtemp\core\core.a(i2c_f1.c.o) (_i2c_irq_handler)
c:/users/softegg/appdata/local/arduino15/packages/arduino/tools/arm-none-eabi-gcc/4.8.3-2014q1/bin/../lib/gcc/arm-none-eabi/4.8.3/../../../../arm-none-eabi/lib/armv7-m\libstdc++.a(atexit_arm.o)
                              D:\projects\arduino\buildtemp\sketch\Stylish.pde.cpp.o (__aeabi_atexit)
c:/users/softegg/appdata/local/arduino15/packages/arduino/tools/arm-none-eabi-gcc/4.8.3-2014q1/bin/../lib/gcc/arm-none-eabi/4.8.3/../../../../arm-none-eabi/lib/armv7-m\libm.a(lib_a-w_pow.o)
                              D:\projects\arduino\buildtemp\libraries\Mozzi-master\mozzi_midi.cpp.o (pow)
c:/users/softegg/appdata/local/arduino15/packages/arduino/tools/arm-none-eabi-gcc/4.8.3-2014q1/bin/../lib/gcc/arm-none-eabi/4.8.3/../../../../arm-none-eabi/lib/armv7-m\libm.a(lib_a-e_pow.o)
                              c:/users/softegg/appdata/local/arduino15/packages/arduino/tools/arm-none-eabi-gcc/4.8.3-2014q1/bin/../lib/gcc/arm-none-eabi/4.8.3/../../../../arm-none-eabi/lib/armv7-m\libm.a(lib_a-w_pow.o) (__ieee754_pow)
c:/users/softegg/appdata/local/arduino15/packages/arduino/tools/arm-none-eabi-gcc/4.8.3-2014q1/bin/../lib/gcc/arm-none-eabi/4.8.3/../../../../arm-none-eabi/lib/armv7-m\libm.a(lib_a-e_sqrt.o)
                              c:/users/softegg/appdata/local/arduino15/packages/arduino/tools/arm-none-eabi-gcc/4.8.3-2014q1/bin/../lib/gcc/arm-none-eabi/4.8.3/../../../../arm-none-eabi/lib/armv7-m\libm.a(lib_a-e_pow.o) (__ieee754_sqrt)
c:/users/softegg/appdata/local/arduino15/packages/arduino/tools/arm-none-eabi-gcc/4.8.3-2014q1/bin/../lib/gcc/arm-none-eabi/4.8.3/../../../../arm-none-eabi/lib/armv7-m\libm.a(lib_a-s_fabs.o)
                              c:/users/softegg/appdata/local/arduino15/packages/arduino/tools/arm-none-eabi-gcc/4.8.3-2014q1/bin/../lib/gcc/arm-none-eabi/4.8.3/../../../../arm-none-eabi/lib/armv7-m\libm.a(lib_a-e_pow.o) (fabs)
c:/users/softegg/appdata/local/arduino15/packages/arduino/tools/arm-none-eabi-gcc/4.8.3-2014q1/bin/../lib/gcc/arm-none-eabi/4.8.3/../../../../arm-none-eabi/lib/armv7-m\libm.a(lib_a-s_finite.o)
                              c:/users/softegg/appdata/local/arduino15/packages/arduino/tools/arm-none-eabi-gcc/4.8.3-2014q1/bin/../lib/gcc/arm-none-eabi/4.8.3/../../../../arm-none-eabi/lib/armv7-m\libm.a(lib_a-w_pow.o) (finite)
c:/users/softegg/appdata/local/arduino15/packages/arduino/tools/arm-none-eabi-gcc/4.8.3-2014q1/bin/../lib/gcc/arm-none-eabi/4.8.3/../../../../arm-none-eabi/lib/armv7-m\libm.a(lib_a-s_fpclassify.o)
                              c:/users/softegg/appdata/local/arduino15/packages/arduino/tools/arm-none-eabi-gcc/4.8.3-2014q1/bin/../lib/gcc/arm-none-eabi/4.8.3/../../../../arm-none-eabi/lib/armv7-m\libm.a(lib_a-w_pow.o) (__fpclassifyd)
c:/users/softegg/appdata/local/arduino15/packages/arduino/tools/arm-none-eabi-gcc/4.8.3-2014q1/bin/../lib/gcc/arm-none-eabi/4.8.3/../../../../arm-none-eabi/lib/armv7-m\libm.a(lib_a-s_lib_ver.o)
                              c:/users/softegg/appdata/local/arduino15/packages/arduino/tools/arm-none-eabi-gcc/4.8.3-2014q1/bin/../lib/gcc/arm-none-eabi/4.8.3/../../../../arm-none-eabi/lib/armv7-m\libm.a(lib_a-w_pow.o) (__fdlib_version)
c:/users/softegg/appdata/local/arduino15/packages/arduino/tools/arm-none-eabi-gcc/4.8.3-2014q1/bin/../lib/gcc/arm-none-eabi/4.8.3/../../../../arm-none-eabi/lib/armv7-m\libm.a(lib_a-s_matherr.o)
                              c:/users/softegg/appdata/local/arduino15/packages/arduino/tools/arm-none-eabi-gcc/4.8.3-2014q1/bin/../lib/gcc/arm-none-eabi/4.8.3/../../../../arm-none-eabi/lib/armv7-m\libm.a(lib_a-w_pow.o) (matherr)
c:/users/softegg/appdata/local/arduino15/packages/arduino/tools/arm-none-eabi-gcc/4.8.3-2014q1/bin/../lib/gcc/arm-none-eabi/4.8.3/../../../../arm-none-eabi/lib/armv7-m\libm.a(lib_a-s_nan.o)
                              c:/users/softegg/appdata/local/arduino15/packages/arduino/tools/arm-none-eabi-gcc/4.8.3-2014q1/bin/../lib/gcc/arm-none-eabi/4.8.3/../../../../arm-none-eabi/lib/armv7-m\libm.a(lib_a-e_pow.o) (nan)
c:/users/softegg/appdata/local/arduino15/packages/arduino/tools/arm-none-eabi-gcc/4.8.3-2014q1/bin/../lib/gcc/arm-none-eabi/4.8.3/../../../../arm-none-eabi/lib/armv7-m\libm.a(lib_a-s_rint.o)
                              c:/users/softegg/appdata/local/arduino15/packages/arduino/tools/arm-none-eabi-gcc/4.8.3-2014q1/bin/../lib/gcc/arm-none-eabi/4.8.3/../../../../arm-none-eabi/lib/armv7-m\libm.a(lib_a-w_pow.o) (rint)
c:/users/softegg/appdata/local/arduino15/packages/arduino/tools/arm-none-eabi-gcc/4.8.3-2014q1/bin/../lib/gcc/arm-none-eabi/4.8.3/../../../../arm-none-eabi/lib/armv7-m\libm.a(lib_a-s_scalbn.o)
                              c:/users/softegg/appdata/local/arduino15/packages/arduino/tools/arm-none-eabi-gcc/4.8.3-2014q1/bin/../lib/gcc/arm-none-eabi/4.8.3/../../../../arm-none-eabi/lib/armv7-m\libm.a(lib_a-e_pow.o) (scalbn)
c:/users/softegg/appdata/local/arduino15/packages/arduino/tools/arm-none-eabi-gcc/4.8.3-2014q1/bin/../lib/gcc/arm-none-eabi/4.8.3/../../../../arm-none-eabi/lib/armv7-m\libm.a(lib_a-s_copysign.o)
                              c:/users/softegg/appdata/local/arduino15/packages/arduino/tools/arm-none-eabi-gcc/4.8.3-2014q1/bin/../lib/gcc/arm-none-eabi/4.8.3/../../../../arm-none-eabi/lib/armv7-m\libm.a(lib_a-s_scalbn.o) (copysign)
c:/users/softegg/appdata/local/arduino15/packages/arduino/tools/arm-none-eabi-gcc/4.8.3-2014q1/bin/../lib/gcc/arm-none-eabi/4.8.3/armv7-m\libgcc.a(_arm_addsubdf3.o)
                              D:\projects\arduino\buildtemp\core\core.a(Print.cpp.o) (__aeabi_dsub)
c:/users/softegg/appdata/local/arduino15/packages/arduino/tools/arm-none-eabi-gcc/4.8.3-2014q1/bin/../lib/gcc/arm-none-eabi/4.8.3/armv7-m\libgcc.a(_arm_muldivdf3.o)
                              D:\projects\arduino\buildtemp\libraries\Mozzi-master\mozzi_midi.cpp.o (__aeabi_dmul)
c:/users/softegg/appdata/local/arduino15/packages/arduino/tools/arm-none-eabi-gcc/4.8.3-2014q1/bin/../lib/gcc/arm-none-eabi/4.8.3/armv7-m\libgcc.a(_arm_cmpdf2.o)
                              c:/users/softegg/appdata/local/arduino15/packages/arduino/tools/arm-none-eabi-gcc/4.8.3-2014q1/bin/../lib/gcc/arm-none-eabi/4.8.3/../../../../arm-none-eabi/lib/armv7-m\libm.a(lib_a-w_pow.o) (__aeabi_dcmpeq)
c:/users/softegg/appdata/local/arduino15/packages/arduino/tools/arm-none-eabi-gcc/4.8.3-2014q1/bin/../lib/gcc/arm-none-eabi/4.8.3/armv7-m\libgcc.a(_arm_fixdfsi.o)
                              D:\projects\arduino\buildtemp\core\core.a(Print.cpp.o) (__aeabi_d2iz)
c:/users/softegg/appdata/local/arduino15/packages/arduino/tools/arm-none-eabi-gcc/4.8.3-2014q1/bin/../lib/gcc/arm-none-eabi/4.8.3/armv7-m\libgcc.a(_arm_truncdfsf2.o)
                              D:\projects\arduino\buildtemp\libraries\Mozzi-master\mozzi_midi.cpp.o (__aeabi_d2f)
c:/users/softegg/appdata/local/arduino15/packages/arduino/tools/arm-none-eabi-gcc/4.8.3-2014q1/bin/../lib/gcc/arm-none-eabi/4.8.3/armv7-m\libgcc.a(_arm_addsubsf3.o)
                              D:\projects\arduino\buildtemp\sketch\Stylish.pde.cpp.o (__aeabi_fsub)
c:/users/softegg/appdata/local/arduino15/packages/arduino/tools/arm-none-eabi-gcc/4.8.3-2014q1/bin/../lib/gcc/arm-none-eabi/4.8.3/armv7-m\libgcc.a(_arm_muldivsf3.o)
                              D:\projects\arduino\buildtemp\sketch\Stylish.pde.cpp.o (__aeabi_fmul)
c:/users/softegg/appdata/local/arduino15/packages/arduino/tools/arm-none-eabi-gcc/4.8.3-2014q1/bin/../lib/gcc/arm-none-eabi/4.8.3/armv7-m\libgcc.a(_arm_cmpsf2.o)
                              D:\projects\arduino\buildtemp\libraries\Mozzi-master\mozzi_midi.cpp.o (__aeabi_fcmpeq)
c:/users/softegg/appdata/local/arduino15/packages/arduino/tools/arm-none-eabi-gcc/4.8.3-2014q1/bin/../lib/gcc/arm-none-eabi/4.8.3/armv7-m\libgcc.a(_arm_fixunssfsi.o)
                              D:\projects\arduino\buildtemp\sketch\Stylish.pde.cpp.o (__aeabi_f2uiz)
c:/users/softegg/appdata/local/arduino15/packages/arduino/tools/arm-none-eabi-gcc/4.8.3-2014q1/bin/../lib/gcc/arm-none-eabi/4.8.3/armv7-m\libgcc.a(_aeabi_uldivmod.o)
                              D:\projects\arduino\buildtemp\sketch\Stylish.pde.cpp.o (__aeabi_uldivmod)
c:/users/softegg/appdata/local/arduino15/packages/arduino/tools/arm-none-eabi-gcc/4.8.3-2014q1/bin/../lib/gcc/arm-none-eabi/4.8.3/armv7-m\libgcc.a(_fixdfdi.o)
                              D:\projects\arduino\buildtemp\core\core.a(Print.cpp.o) (__aeabi_d2lz)
c:/users/softegg/appdata/local/arduino15/packages/arduino/tools/arm-none-eabi-gcc/4.8.3-2014q1/bin/../lib/gcc/arm-none-eabi/4.8.3/armv7-m\libgcc.a(_fixunsdfdi.o)
                              c:/users/softegg/appdata/local/arduino15/packages/arduino/tools/arm-none-eabi-gcc/4.8.3-2014q1/bin/../lib/gcc/arm-none-eabi/4.8.3/armv7-m\libgcc.a(_fixdfdi.o) (__aeabi_d2ulz)
c:/users/softegg/appdata/local/arduino15/packages/arduino/tools/arm-none-eabi-gcc/4.8.3-2014q1/bin/../lib/gcc/arm-none-eabi/4.8.3/armv7-m\libgcc.a(bpabi.o)
                              c:/users/softegg/appdata/local/arduino15/packages/arduino/tools/arm-none-eabi-gcc/4.8.3-2014q1/bin/../lib/gcc/arm-none-eabi/4.8.3/armv7-m\libgcc.a(_aeabi_uldivmod.o) (__gnu_uldivmod_helper)
c:/users/softegg/appdata/local/arduino15/packages/arduino/tools/arm-none-eabi-gcc/4.8.3-2014q1/bin/../lib/gcc/arm-none-eabi/4.8.3/armv7-m\libgcc.a(_dvmd_tls.o)
                              c:/users/softegg/appdata/local/arduino15/packages/arduino/tools/arm-none-eabi-gcc/4.8.3-2014q1/bin/../lib/gcc/arm-none-eabi/4.8.3/armv7-m\libgcc.a(_aeabi_uldivmod.o) (__aeabi_ldiv0)
c:/users/softegg/appdata/local/arduino15/packages/arduino/tools/arm-none-eabi-gcc/4.8.3-2014q1/bin/../lib/gcc/arm-none-eabi/4.8.3/armv7-m\libgcc.a(_arm_fixunsdfsi.o)
                              c:/users/softegg/appdata/local/arduino15/packages/arduino/tools/arm-none-eabi-gcc/4.8.3-2014q1/bin/../lib/gcc/arm-none-eabi/4.8.3/armv7-m\libgcc.a(_fixunsdfdi.o) (__aeabi_d2uiz)
c:/users/softegg/appdata/local/arduino15/packages/arduino/tools/arm-none-eabi-gcc/4.8.3-2014q1/bin/../lib/gcc/arm-none-eabi/4.8.3/armv7-m\libgcc.a(_divdi3.o)
                              c:/users/softegg/appdata/local/arduino15/packages/arduino/tools/arm-none-eabi-gcc/4.8.3-2014q1/bin/../lib/gcc/arm-none-eabi/4.8.3/armv7-m\libgcc.a(bpabi.o) (__divdi3)
c:/users/softegg/appdata/local/arduino15/packages/arduino/tools/arm-none-eabi-gcc/4.8.3-2014q1/bin/../lib/gcc/arm-none-eabi/4.8.3/armv7-m\libgcc.a(_udivdi3.o)
                              c:/users/softegg/appdata/local/arduino15/packages/arduino/tools/arm-none-eabi-gcc/4.8.3-2014q1/bin/../lib/gcc/arm-none-eabi/4.8.3/armv7-m\libgcc.a(bpabi.o) (__udivdi3)
c:/users/softegg/appdata/local/arduino15/packages/arduino/tools/arm-none-eabi-gcc/4.8.3-2014q1/bin/../lib/gcc/arm-none-eabi/4.8.3/../../../../arm-none-eabi/lib/armv7-m\libc.a(lib_a-cxa_atexit.o)
                              c:/users/softegg/appdata/local/arduino15/packages/arduino/tools/arm-none-eabi-gcc/4.8.3-2014q1/bin/../lib/gcc/arm-none-eabi/4.8.3/../../../../arm-none-eabi/lib/armv7-m\libstdc++.a(atexit_arm.o) (__cxa_atexit)
c:/users/softegg/appdata/local/arduino15/packages/arduino/tools/arm-none-eabi-gcc/4.8.3-2014q1/bin/../lib/gcc/arm-none-eabi/4.8.3/../../../../arm-none-eabi/lib/armv7-m\libc.a(lib_a-errno.o)
                              D:\projects\arduino\buildtemp\core\wirish\syscalls.c.o (__errno)
c:/users/softegg/appdata/local/arduino15/packages/arduino/tools/arm-none-eabi-gcc/4.8.3-2014q1/bin/../lib/gcc/arm-none-eabi/4.8.3/../../../../arm-none-eabi/lib/armv7-m\libc.a(lib_a-exit.o)
                              c:/users/softegg/appdata/local/arduino15/packages/arduino/tools/arm-none-eabi-gcc/4.8.3-2014q1/bin/../lib/gcc/arm-none-eabi/4.8.3/../../../../arm-none-eabi/lib/armv7-m/crt0.o (exit)
c:/users/softegg/appdata/local/arduino15/packages/arduino/tools/arm-none-eabi-gcc/4.8.3-2014q1/bin/../lib/gcc/arm-none-eabi/4.8.3/../../../../arm-none-eabi/lib/armv7-m\libc.a(lib_a-impure.o)
                              c:/users/softegg/appdata/local/arduino15/packages/arduino/tools/arm-none-eabi-gcc/4.8.3-2014q1/bin/../lib/gcc/arm-none-eabi/4.8.3/../../../../arm-none-eabi/lib/armv7-m\libc.a(lib_a-exit.o) (_global_impure_ptr)
c:/users/softegg/appdata/local/arduino15/packages/arduino/tools/arm-none-eabi-gcc/4.8.3-2014q1/bin/../lib/gcc/arm-none-eabi/4.8.3/../../../../arm-none-eabi/lib/armv7-m\libc.a(lib_a-init.o)
                              c:/users/softegg/appdata/local/arduino15/packages/arduino/tools/arm-none-eabi-gcc/4.8.3-2014q1/bin/../lib/gcc/arm-none-eabi/4.8.3/../../../../arm-none-eabi/lib/armv7-m/crt0.o (__libc_init_array)
c:/users/softegg/appdata/local/arduino15/packages/arduino/tools/arm-none-eabi-gcc/4.8.3-2014q1/bin/../lib/gcc/arm-none-eabi/4.8.3/../../../../arm-none-eabi/lib/armv7-m\libc.a(lib_a-malloc.o)
                              D:\projects\arduino\buildtemp\libraries\WS2812B\WS2812B.cpp.o (malloc)
c:/users/softegg/appdata/local/arduino15/packages/arduino/tools/arm-none-eabi-gcc/4.8.3-2014q1/bin/../lib/gcc/arm-none-eabi/4.8.3/../../../../arm-none-eabi/lib/armv7-m\libc.a(lib_a-mallocr.o)
                              c:/users/softegg/appdata/local/arduino15/packages/arduino/tools/arm-none-eabi-gcc/4.8.3-2014q1/bin/../lib/gcc/arm-none-eabi/4.8.3/../../../../arm-none-eabi/lib/armv7-m\libc.a(lib_a-malloc.o) (_malloc_r)
c:/users/softegg/appdata/local/arduino15/packages/arduino/tools/arm-none-eabi-gcc/4.8.3-2014q1/bin/../lib/gcc/arm-none-eabi/4.8.3/../../../../arm-none-eabi/lib/armv7-m\libc.a(lib_a-memcpy.o)
                              D:\projects\arduino\buildtemp\sketch\Stylish.pde.cpp.o (memcpy)
c:/users/softegg/appdata/local/arduino15/packages/arduino/tools/arm-none-eabi-gcc/4.8.3-2014q1/bin/../lib/gcc/arm-none-eabi/4.8.3/../../../../arm-none-eabi/lib/armv7-m\libc.a(lib_a-memset.o)
                              c:/users/softegg/appdata/local/arduino15/packages/arduino/tools/arm-none-eabi-gcc/4.8.3-2014q1/bin/../lib/gcc/arm-none-eabi/4.8.3/../../../../arm-none-eabi/lib/armv7-m/crt0.o (memset)
c:/users/softegg/appdata/local/arduino15/packages/arduino/tools/arm-none-eabi-gcc/4.8.3-2014q1/bin/../lib/gcc/arm-none-eabi/4.8.3/../../../../arm-none-eabi/lib/armv7-m\libc.a(lib_a-mlock.o)
                              c:/users/softegg/appdata/local/arduino15/packages/arduino/tools/arm-none-eabi-gcc/4.8.3-2014q1/bin/../lib/gcc/arm-none-eabi/4.8.3/../../../../arm-none-eabi/lib/armv7-m\libc.a(lib_a-mallocr.o) (__malloc_lock)
c:/users/softegg/appdata/local/arduino15/packages/arduino/tools/arm-none-eabi-gcc/4.8.3-2014q1/bin/../lib/gcc/arm-none-eabi/4.8.3/../../../../arm-none-eabi/lib/armv7-m\libc.a(lib_a-sbrkr.o)
                              c:/users/softegg/appdata/local/arduino15/packages/arduino/tools/arm-none-eabi-gcc/4.8.3-2014q1/bin/../lib/gcc/arm-none-eabi/4.8.3/../../../../arm-none-eabi/lib/armv7-m\libc.a(lib_a-mallocr.o) (_sbrk_r)
c:/users/softegg/appdata/local/arduino15/packages/arduino/tools/arm-none-eabi-gcc/4.8.3-2014q1/bin/../lib/gcc/arm-none-eabi/4.8.3/../../../../arm-none-eabi/lib/armv7-m\libc.a(lib_a-strlen.o)
                              D:\projects\arduino\buildtemp\core\core.a(Print.cpp.o) (strlen)
c:/users/softegg/appdata/local/arduino15/packages/arduino/tools/arm-none-eabi-gcc/4.8.3-2014q1/bin/../lib/gcc/arm-none-eabi/4.8.3/../../../../arm-none-eabi/lib/armv7-m\libc.a(lib_a-__atexit.o)
                              c:/users/softegg/appdata/local/arduino15/packages/arduino/tools/arm-none-eabi-gcc/4.8.3-2014q1/bin/../lib/gcc/arm-none-eabi/4.8.3/../../../../arm-none-eabi/lib/armv7-m\libc.a(lib_a-cxa_atexit.o) (__register_exitproc)
c:/users/softegg/appdata/local/arduino15/packages/arduino/tools/arm-none-eabi-gcc/4.8.3-2014q1/bin/../lib/gcc/arm-none-eabi/4.8.3/../../../../arm-none-eabi/lib/armv7-m\libc.a(lib_a-__call_atexit.o)
                              c:/users/softegg/appdata/local/arduino15/packages/arduino/tools/arm-none-eabi-gcc/4.8.3-2014q1/bin/../lib/gcc/arm-none-eabi/4.8.3/../../../../arm-none-eabi/lib/armv7-m\libc.a(lib_a-exit.o) (__call_exitprocs)
c:/users/softegg/appdata/local/arduino15/packages/arduino/tools/arm-none-eabi-gcc/4.8.3-2014q1/bin/../lib/gcc/arm-none-eabi/4.8.3/../../../../arm-none-eabi/lib/armv7-m\libc.a(lib_a-atexit.o)
                              c:/users/softegg/appdata/local/arduino15/packages/arduino/tools/arm-none-eabi-gcc/4.8.3-2014q1/bin/../lib/gcc/arm-none-eabi/4.8.3/../../../../arm-none-eabi/lib/armv7-m\libc.a(lib_a-__call_atexit.o) (atexit)
c:/users/softegg/appdata/local/arduino15/packages/arduino/tools/arm-none-eabi-gcc/4.8.3-2014q1/bin/../lib/gcc/arm-none-eabi/4.8.3/../../../../arm-none-eabi/lib/armv7-m\libc.a(lib_a-fini.o)
                              c:/users/softegg/appdata/local/arduino15/packages/arduino/tools/arm-none-eabi-gcc/4.8.3-2014q1/bin/../lib/gcc/arm-none-eabi/4.8.3/../../../../arm-none-eabi/lib/armv7-m\libc.a(lib_a-__call_atexit.o) (__libc_fini_array)
c:/users/softegg/appdata/local/arduino15/packages/arduino/tools/arm-none-eabi-gcc/4.8.3-2014q1/bin/../lib/gcc/arm-none-eabi/4.8.3/../../../../arm-none-eabi/lib/armv7-m\libc.a(lib_a-freer.o)
                              c:/users/softegg/appdata/local/arduino15/packages/arduino/tools/arm-none-eabi-gcc/4.8.3-2014q1/bin/../lib/gcc/arm-none-eabi/4.8.3/../../../../arm-none-eabi/lib/armv7-m\libc.a(lib_a-malloc.o) (_free_r)
c:/users/softegg/appdata/local/arduino15/packages/arduino/tools/arm-none-eabi-gcc/4.8.3-2014q1/bin/../lib/gcc/arm-none-eabi/4.8.3/../../../../arm-none-eabi/lib/armv7-m\libc.a(lib_a-reent.o)
                              c:/users/softegg/appdata/local/arduino15/packages/arduino/tools/arm-none-eabi-gcc/4.8.3-2014q1/bin/../lib/gcc/arm-none-eabi/4.8.3/../../../../arm-none-eabi/lib/armv7-m\libc.a(lib_a-sbrkr.o) (errno)

Allocating common symbols
Common symbol       size              file

SaveRState          0x2               D:\projects\arduino\buildtemp\core\core.a(usb.c.o)
SaveState           0x2               D:\projects\arduino\buildtemp\core\core.a(usb_init.c.o)
errno               0x4               c:/users/softegg/appdata/local/arduino15/packages/arduino/tools/arm-none-eabi-gcc/4.8.3-2014q1/bin/../lib/gcc/arm-none-eabi/4.8.3/../../../../arm-none-eabi/lib/armv7-m\libc.a(lib_a-reent.o)
pProperty           0x4               D:\projects\arduino\buildtemp\core\core.a(usb_init.c.o)
EPindex             0x1               D:\projects\arduino\buildtemp\core\core.a(usb_init.c.o)
SaveTState          0x2               D:\projects\arduino\buildtemp\core\core.a(usb.c.o)
systick_uptime_millis
                    0x4               D:\projects\arduino\buildtemp\core\core.a(systick.c.o)
Device_Info         0x1c              D:\projects\arduino\buildtemp\core\core.a(usb_init.c.o)
pUser_Standard_Requests
                    0x4               D:\projects\arduino\buildtemp\core\core.a(usb_init.c.o)
StatusInfo          0x2               D:\projects\arduino\buildtemp\core\core.a(usb_core.c.o)
pInformation        0x4               D:\projects\arduino\buildtemp\core\core.a(usb_init.c.o)
ResumeS             0x2               D:\projects\arduino\buildtemp\core\core.a(usb.c.o)
wInterrupt_Mask     0x2               D:\projects\arduino\buildtemp\core\core.a(usb_init.c.o)

Discarded input sections

 .text          0x00000000        0x0 c:/users/softegg/appdata/local/arduino15/packages/arduino/tools/arm-none-eabi-gcc/4.8.3-2014q1/bin/../lib/gcc/arm-none-eabi/4.8.3/armv7-m/crti.o
 .data          0x00000000        0x0 c:/users/softegg/appdata/local/arduino15/packages/arduino/tools/arm-none-eabi-gcc/4.8.3-2014q1/bin/../lib/gcc/arm-none-eabi/4.8.3/armv7-m/crti.o
 .bss           0x00000000        0x0 c:/users/softegg/appdata/local/arduino15/packages/arduino/tools/arm-none-eabi-gcc/4.8.3-2014q1/bin/../lib/gcc/arm-none-eabi/4.8.3/armv7-m/crti.o
 .text          0x00000000       0x74 c:/users/softegg/appdata/local/arduino15/packages/arduino/tools/arm-none-eabi-gcc/4.8.3-2014q1/bin/../lib/gcc/arm-none-eabi/4.8.3/../../../../arm-none-eabi/lib/armv7-m/crt0.o
 .data          0x00000000        0x0 c:/users/softegg/appdata/local/arduino15/packages/arduino/tools/arm-none-eabi-gcc/4.8.3-2014q1/bin/../lib/gcc/arm-none-eabi/4.8.3/../../../../arm-none-eabi/lib/armv7-m/crt0.o
 .bss           0x00000000        0x0 c:/users/softegg/appdata/local/arduino15/packages/arduino/tools/arm-none-eabi-gcc/4.8.3-2014q1/bin/../lib/gcc/arm-none-eabi/4.8.3/../../../../arm-none-eabi/lib/armv7-m/crt0.o
 .ARM.extab     0x00000000        0x0 c:/users/softegg/appdata/local/arduino15/packages/arduino/tools/arm-none-eabi-gcc/4.8.3-2014q1/bin/../lib/gcc/arm-none-eabi/4.8.3/../../../../arm-none-eabi/lib/armv7-m/crt0.o
 .ARM.exidx     0x00000000        0x8 c:/users/softegg/appdata/local/arduino15/packages/arduino/tools/arm-none-eabi-gcc/4.8.3-2014q1/bin/../lib/gcc/arm-none-eabi/4.8.3/../../../../arm-none-eabi/lib/armv7-m/crt0.o
 .group         0x00000000        0x8 D:\projects\arduino\buildtemp\sketch\Stylish.pde.cpp.o
 .group         0x00000000        0x8 D:\projects\arduino\buildtemp\sketch\Stylish.pde.cpp.o
 .group         0x00000000        0x8 D:\projects\arduino\buildtemp\sketch\Stylish.pde.cpp.o
 .group         0x00000000        0x8 D:\projects\arduino\buildtemp\sketch\Stylish.pde.cpp.o
 .group         0x00000000        0x8 D:\projects\arduino\buildtemp\sketch\Stylish.pde.cpp.o
 .group         0x00000000        0x8 D:\projects\arduino\buildtemp\sketch\Stylish.pde.cpp.o
 .text          0x00000000        0x0 D:\projects\arduino\buildtemp\sketch\Stylish.pde.cpp.o
 .data          0x00000000        0x0 D:\projects\arduino\buildtemp\sketch\Stylish.pde.cpp.o
 .bss           0x00000000        0x0 D:\projects\arduino\buildtemp\sketch\Stylish.pde.cpp.o
 .text._Z18SetKeyDownCallbackPFvhE
                0x00000000        0xc D:\projects\arduino\buildtemp\sketch\Stylish.pde.cpp.o
 .text._Z16SetKeyUpCallbackPFvhE
                0x00000000        0xc D:\projects\arduino\buildtemp\sketch\Stylish.pde.cpp.o
 .text._Z16GetStylusKeyDownv
                0x00000000        0xc D:\projects\arduino\buildtemp\sketch\Stylish.pde.cpp.o
 .text._Z16GetStylusKeyBitsv
                0x00000000        0xc D:\projects\arduino\buildtemp\sketch\Stylish.pde.cpp.o
 .text._Z15AnimPixelsClearv
                0x00000000       0x10 D:\projects\arduino\buildtemp\sketch\Stylish.pde.cpp.o
 .text._Z17AnimPixelsFadeSubh
                0x00000000       0x2c D:\projects\arduino\buildtemp\sketch\Stylish.pde.cpp.o
 .text._Z12AnimPixelSethR5rgb_t
                0x00000000       0x18 D:\projects\arduino\buildtemp\sketch\Stylish.pde.cpp.o
 .text._Z14SoundRetriggerv
                0x00000000        0xc D:\projects\arduino\buildtemp\sketch\Stylish.pde.cpp.o
 .bss.last_patch_number
                0x00000000        0x1 D:\projects\arduino\buildtemp\sketch\Stylish.pde.cpp.o
 .bss.patch_number_changed
                0x00000000        0x1 D:\projects\arduino\buildtemp\sketch\Stylish.pde.cpp.o
 .text          0x00000000        0x0 D:\projects\arduino\buildtemp\sketch\flashwriter.cpp.o
 .data          0x00000000        0x0 D:\projects\arduino\buildtemp\sketch\flashwriter.cpp.o
 .bss           0x00000000        0x0 D:\projects\arduino\buildtemp\sketch\flashwriter.cpp.o
 .text._Z15flashErasePagesmt
                0x00000000       0x30 D:\projects\arduino\buildtemp\sketch\flashwriter.cpp.o
 .text._Z6crMaskm
                0x00000000       0x12 D:\projects\arduino\buildtemp\sketch\flashwriter.cpp.o
 .text          0x00000000        0x0 D:\projects\arduino\buildtemp\sketch\rgb.cpp.o
 .data          0x00000000        0x0 D:\projects\arduino\buildtemp\sketch\rgb.cpp.o
 .bss           0x00000000        0x0 D:\projects\arduino\buildtemp\sketch\rgb.cpp.o
 .text._ZN5rgb_tmIERKS_
                0x00000000       0x28 D:\projects\arduino\buildtemp\sketch\rgb.cpp.o
 .text._ZN5rgb_tplERKS_
                0x00000000       0x40 D:\projects\arduino\buildtemp\sketch\rgb.cpp.o
 .text._ZN5rgb_tmiERKS_
                0x00000000       0x38 D:\projects\arduino\buildtemp\sketch\rgb.cpp.o
 .text._ZN5rgb_tmlERKh
                0x00000000       0x3a D:\projects\arduino\buildtemp\sketch\rgb.cpp.o
 .text._ZN5rgb_tdvERKh
                0x00000000       0x28 D:\projects\arduino\buildtemp\sketch\rgb.cpp.o
 .text          0x00000000        0x0 D:\projects\arduino\buildtemp\libraries\WS2812B\WS2812B.cpp.o
 .data          0x00000000        0x0 D:\projects\arduino\buildtemp\libraries\WS2812B\WS2812B.cpp.o
 .bss           0x00000000        0x0 D:\projects\arduino\buildtemp\libraries\WS2812B\WS2812B.cpp.o
 .text._ZN7WS2812B13setPixelColorEtm
                0x00000000       0x68 D:\projects\arduino\buildtemp\libraries\WS2812B\WS2812B.cpp.o
 .text._ZN7WS2812B5ColorEhhh
                0x00000000        0xa D:\projects\arduino\buildtemp\libraries\WS2812B\WS2812B.cpp.o
 .text._ZN7WS2812B5ColorEhhhh
                0x00000000       0xbc D:\projects\arduino\buildtemp\libraries\WS2812B\WS2812B.cpp.o
 .text._ZNK7WS2812B13getBrightnessEv
                0x00000000        0x8 D:\projects\arduino\buildtemp\libraries\WS2812B\WS2812B.cpp.o
 .text          0x00000000        0x0 D:\projects\arduino\buildtemp\libraries\Mozzi-master\MozziGuts.cpp.o
 .data          0x00000000        0x0 D:\projects\arduino\buildtemp\libraries\Mozzi-master\MozziGuts.cpp.o
 .bss           0x00000000        0x0 D:\projects\arduino\buildtemp\libraries\Mozzi-master\MozziGuts.cpp.o
 .text._Z9stopMozziv
                0x00000000       0x10 D:\projects\arduino\buildtemp\libraries\Mozzi-master\MozziGuts.cpp.o
 .text._Z10audioTicksv
                0x00000000       0x14 D:\projects\arduino\buildtemp\libraries\Mozzi-master\MozziGuts.cpp.o
 .text._Z11mozziMicrosv
                0x00000000        0xc D:\projects\arduino\buildtemp\libraries\Mozzi-master\MozziGuts.cpp.o
 .text          0x00000000        0x0 D:\projects\arduino\buildtemp\libraries\Mozzi-master\mozzi_analog.cpp.o
 .data          0x00000000        0x0 D:\projects\arduino\buildtemp\libraries\Mozzi-master\mozzi_analog.cpp.o
 .bss           0x00000000        0x0 D:\projects\arduino\buildtemp\libraries\Mozzi-master\mozzi_analog.cpp.o
 .text._Z19disconnectDigitalInh
                0x00000000        0x2 D:\projects\arduino\buildtemp\libraries\Mozzi-master\mozzi_analog.cpp.o
 .text._Z18reconnectDigitalInh
                0x00000000        0x2 D:\projects\arduino\buildtemp\libraries\Mozzi-master\mozzi_analog.cpp.o
 .text._Z26adcDisconnectAllDigitalInsv
                0x00000000        0x2 D:\projects\arduino\buildtemp\libraries\Mozzi-master\mozzi_analog.cpp.o
 .text._Z25adcReconnectAllDigitalInsv
                0x00000000        0x2 D:\projects\arduino\buildtemp\libraries\Mozzi-master\mozzi_analog.cpp.o
 .text._Z18adcPinToChannelNumh
                0x00000000        0x2 D:\projects\arduino\buildtemp\libraries\Mozzi-master\mozzi_analog.cpp.o
 .text._Z15mozziAnalogReadh
                0x00000000       0x20 D:\projects\arduino\buildtemp\libraries\Mozzi-master\mozzi_analog.cpp.o
 .text          0x00000000        0x0 D:\projects\arduino\buildtemp\libraries\Mozzi-master\mozzi_fixmath.cpp.o
 .data          0x00000000        0x0 D:\projects\arduino\buildtemp\libraries\Mozzi-master\mozzi_fixmath.cpp.o
 .bss           0x00000000        0x0 D:\projects\arduino\buildtemp\libraries\Mozzi-master\mozzi_fixmath.cpp.o
 .text._Z10uint8_tModhh
                0x00000000        0xc D:\projects\arduino\buildtemp\libraries\Mozzi-master\mozzi_fixmath.cpp.o
 .text._Z10uint8_tDivhh
                0x00000000       0x16 D:\projects\arduino\buildtemp\libraries\Mozzi-master\mozzi_fixmath.cpp.o
 .text._Z10uint8_tRndhh
                0x00000000       0x2c D:\projects\arduino\buildtemp\libraries\Mozzi-master\mozzi_fixmath.cpp.o
 .text._Z4ipowii
                0x00000000       0x14 D:\projects\arduino\buildtemp\libraries\Mozzi-master\mozzi_fixmath.cpp.o
 .text._Z11Q16n16_pow2t
                0x00000000       0x14 D:\projects\arduino\buildtemp\libraries\Mozzi-master\mozzi_fixmath.cpp.o
 .text._Z7isqrt32m
                0x00000000       0x28 D:\projects\arduino\buildtemp\libraries\Mozzi-master\mozzi_fixmath.cpp.o
 .text._Z7isqrt16t
                0x00000000       0x2c D:\projects\arduino\buildtemp\libraries\Mozzi-master\mozzi_fixmath.cpp.o
 .bss._ZZ10uint8_tRndhhE4seed
                0x00000000        0x1 D:\projects\arduino\buildtemp\libraries\Mozzi-master\mozzi_fixmath.cpp.o
 .text          0x00000000        0x0 D:\projects\arduino\buildtemp\libraries\Mozzi-master\mozzi_midi.cpp.o
 .data          0x00000000        0x0 D:\projects\arduino\buildtemp\libraries\Mozzi-master\mozzi_midi.cpp.o
 .bss           0x00000000        0x0 D:\projects\arduino\buildtemp\libraries\Mozzi-master\mozzi_midi.cpp.o
 .text._Z11Q16n16_mtofm
                0x00000000       0x30 D:\projects\arduino\buildtemp\libraries\Mozzi-master\mozzi_midi.cpp.o
 .text._Z4mtofh
                0x00000000       0x10 D:\projects\arduino\buildtemp\libraries\Mozzi-master\mozzi_midi.cpp.o
 .text._Z4mtofi
                0x00000000       0x10 D:\projects\arduino\buildtemp\libraries\Mozzi-master\mozzi_midi.cpp.o
 .progmem.data  0x00000000      0x200 D:\projects\arduino\buildtemp\libraries\Mozzi-master\mozzi_midi.cpp.o
 .text          0x00000000        0x0 D:\projects\arduino\buildtemp\libraries\Mozzi-master\mozzi_rand.cpp.o
 .data          0x00000000        0x0 D:\projects\arduino\buildtemp\libraries\Mozzi-master\mozzi_rand.cpp.o
 .bss           0x00000000        0x0 D:\projects\arduino\buildtemp\libraries\Mozzi-master\mozzi_rand.cpp.o
 .text._Z8randSeedl
                0x00000000        0xc D:\projects\arduino\buildtemp\libraries\Mozzi-master\mozzi_rand.cpp.o
 .text._Z8randSeedv
                0x00000000       0x48 D:\projects\arduino\buildtemp\libraries\Mozzi-master\mozzi_rand.cpp.o
 .text._Z12xorshiftSeedl
                0x00000000        0xc D:\projects\arduino\buildtemp\libraries\Mozzi-master\mozzi_rand.cpp.o
 .text._Z4randaa
                0x00000000       0x18 D:\projects\arduino\buildtemp\libraries\Mozzi-master\mozzi_rand.cpp.o
 .text._Z4randhh
                0x00000000       0x18 D:\projects\arduino\buildtemp\libraries\Mozzi-master\mozzi_rand.cpp.o
 .text._Z4randii
                0x00000000       0x16 D:\projects\arduino\buildtemp\libraries\Mozzi-master\mozzi_rand.cpp.o
 .text._Z4randjj
                0x00000000       0x16 D:\projects\arduino\buildtemp\libraries\Mozzi-master\mozzi_rand.cpp.o
 .text._Z4randa
                0x00000000       0x10 D:\projects\arduino\buildtemp\libraries\Mozzi-master\mozzi_rand.cpp.o
 .text._Z4randh
                0x00000000       0x10 D:\projects\arduino\buildtemp\libraries\Mozzi-master\mozzi_rand.cpp.o
 .text._Z4randj
                0x00000000       0x10 D:\projects\arduino\buildtemp\libraries\Mozzi-master\mozzi_rand.cpp.o
 .text._Z12randMidiNotev
                0x00000000        0xc D:\projects\arduino\buildtemp\libraries\Mozzi-master\mozzi_rand.cpp.o
 .text          0x00000000        0x0 D:\projects\arduino\buildtemp\libraries\Mozzi-master\mozzi_utils.cpp.o
 .data          0x00000000        0x0 D:\projects\arduino\buildtemp\libraries\Mozzi-master\mozzi_utils.cpp.o
 .bss           0x00000000        0x0 D:\projects\arduino\buildtemp\libraries\Mozzi-master\mozzi_utils.cpp.o
 .text._Z13trailingZerosm
                0x00000000       0x10 D:\projects\arduino\buildtemp\libraries\Mozzi-master\mozzi_utils.cpp.o
 .text._Z11BPMtoMillisf
                0x00000000       0x20 D:\projects\arduino\buildtemp\libraries\Mozzi-master\mozzi_utils.cpp.o
 .text          0x00000000        0x0 D:\projects\arduino\buildtemp\libraries\Mozzi-master\twi_nonblock.cpp.o
 .data          0x00000000        0x0 D:\projects\arduino\buildtemp\libraries\Mozzi-master\twi_nonblock.cpp.o
 .bss           0x00000000        0x0 D:\projects\arduino\buildtemp\libraries\Mozzi-master\twi_nonblock.cpp.o
 .text          0x00000000        0x0 D:\projects\arduino\buildtemp\libraries\Mozzi-master\utility\FrequencyTimer2.cpp.o
 .data          0x00000000        0x0 D:\projects\arduino\buildtemp\libraries\Mozzi-master\utility\FrequencyTimer2.cpp.o
 .bss           0x00000000        0x0 D:\projects\arduino\buildtemp\libraries\Mozzi-master\utility\FrequencyTimer2.cpp.o
 .text          0x00000000        0x0 D:\projects\arduino\buildtemp\libraries\Mozzi-master\utility\TimerOne.cpp.o
 .data          0x00000000        0x0 D:\projects\arduino\buildtemp\libraries\Mozzi-master\utility\TimerOne.cpp.o
 .bss           0x00000000        0x0 D:\projects\arduino\buildtemp\libraries\Mozzi-master\utility\TimerOne.cpp.o
 .text          0x00000000        0x0 D:\projects\arduino\buildtemp\libraries\Mozzi-master\utility\TimerZero.cpp.o
 .data          0x00000000        0x0 D:\projects\arduino\buildtemp\libraries\Mozzi-master\utility\TimerZero.cpp.o
 .bss           0x00000000        0x0 D:\projects\arduino\buildtemp\libraries\Mozzi-master\utility\TimerZero.cpp.o
 .text          0x00000000        0x0 D:\projects\arduino\buildtemp\libraries\SPI\SPI.cpp.o
 .data          0x00000000        0x0 D:\projects\arduino\buildtemp\libraries\SPI\SPI.cpp.o
 .bss           0x00000000        0x0 D:\projects\arduino\buildtemp\libraries\SPI\SPI.cpp.o
 .text._ZN8SPIClass10beginSlaveEv
                0x00000000       0x36 D:\projects\arduino\buildtemp\libraries\SPI\SPI.cpp.o
 .text._ZN8SPIClass11setBitOrderE8BitOrder
                0x00000000       0x18 D:\projects\arduino\buildtemp\libraries\SPI\SPI.cpp.o
 .text._ZN8SPIClass11setDataSizeEm
                0x00000000       0x30 D:\projects\arduino\buildtemp\libraries\SPI\SPI.cpp.o
 .text._ZN8SPIClass11setDataModeEh
                0x00000000       0x1a D:\projects\arduino\buildtemp\libraries\SPI\SPI.cpp.o
 .text._ZN8SPIClass16beginTransactionEh11SPISettings
                0x00000000       0x46 D:\projects\arduino\buildtemp\libraries\SPI\SPI.cpp.o
 .text._ZN8SPIClass21beginTransactionSlaveE11SPISettings
                0x00000000       0x32 D:\projects\arduino\buildtemp\libraries\SPI\SPI.cpp.o
 .text._ZN8SPIClass14endTransactionEv
                0x00000000        0x2 D:\projects\arduino\buildtemp\libraries\SPI\SPI.cpp.o
 .text._ZN8SPIClass4readEv
                0x00000000       0x12 D:\projects\arduino\buildtemp\libraries\SPI\SPI.cpp.o
 .text._ZN8SPIClass4readEPhm
                0x00000000       0x44 D:\projects\arduino\buildtemp\libraries\SPI\SPI.cpp.o
 .text._ZN8SPIClass5writeEt
                0x00000000       0x16 D:\projects\arduino\buildtemp\libraries\SPI\SPI.cpp.o
 .text._ZN8SPIClass7write16Et
                0x00000000       0x20 D:\projects\arduino\buildtemp\libraries\SPI\SPI.cpp.o
 .text._ZN8SPIClass5writeEtm
                0x00000000       0x1e D:\projects\arduino\buildtemp\libraries\SPI\SPI.cpp.o
 .text._ZN8SPIClass5writeEPKvm
                0x00000000       0x1c D:\projects\arduino\buildtemp\libraries\SPI\SPI.cpp.o
 .text._ZNK8SPIClass8transferEh
                0x00000000       0x1c D:\projects\arduino\buildtemp\libraries\SPI\SPI.cpp.o
 .text._ZNK8SPIClass10transfer16Et
                0x00000000       0x34 D:\projects\arduino\buildtemp\libraries\SPI\SPI.cpp.o
 .text._ZN8SPIClass14dmaTransferSetEPKvPv
                0x00000000       0x80 D:\projects\arduino\buildtemp\libraries\SPI\SPI.cpp.o
 .text._ZN8SPIClass17dmaTransferRepeatEt
                0x00000000       0xe0 D:\projects\arduino\buildtemp\libraries\SPI\SPI.cpp.o
 .text._ZN8SPIClass11dmaTransferEPKvPvt
                0x00000000       0x16 D:\projects\arduino\buildtemp\libraries\SPI\SPI.cpp.o
 .text._ZN8SPIClass10dmaSendSetEPKvb
                0x00000000       0x4e D:\projects\arduino\buildtemp\libraries\SPI\SPI.cpp.o
 .text._ZN8SPIClass13dmaSendRepeatEt
                0x00000000       0xa4 D:\projects\arduino\buildtemp\libraries\SPI\SPI.cpp.o
 .text._ZN8SPIClass7dmaSendEPKvtb
                0x00000000       0x18 D:\projects\arduino\buildtemp\libraries\SPI\SPI.cpp.o
 .text._ZN8SPIClass9onReceiveEPFvvE
                0x00000000       0x38 D:\projects\arduino\buildtemp\libraries\SPI\SPI.cpp.o
 .text._ZN8SPIClass10onTransmitEPFvvE
                0x00000000       0x38 D:\projects\arduino\buildtemp\libraries\SPI\SPI.cpp.o
 .text._ZN8SPIClass13EventCallbackEv
                0x00000000       0x50 D:\projects\arduino\buildtemp\libraries\SPI\SPI.cpp.o
 .text._ZN8SPIClass18_spi1EventCallbackEv
                0x00000000        0xc D:\projects\arduino\buildtemp\libraries\SPI\SPI.cpp.o
 .text._ZN8SPIClass18_spi2EventCallbackEv
                0x00000000        0xc D:\projects\arduino\buildtemp\libraries\SPI\SPI.cpp.o
 .text._ZN8SPIClass15attachInterruptEv
                0x00000000        0x2 D:\projects\arduino\buildtemp\libraries\SPI\SPI.cpp.o
 .text._ZN8SPIClass15detachInterruptEv
                0x00000000        0x2 D:\projects\arduino\buildtemp\libraries\SPI\SPI.cpp.o
 .text._ZN8SPIClass7misoPinEv
                0x00000000       0x10 D:\projects\arduino\buildtemp\libraries\SPI\SPI.cpp.o
 .text._ZN8SPIClass7mosiPinEv
                0x00000000       0x10 D:\projects\arduino\buildtemp\libraries\SPI\SPI.cpp.o
 .text._ZN8SPIClass6sckPinEv
                0x00000000       0x10 D:\projects\arduino\buildtemp\libraries\SPI\SPI.cpp.o
 .text._ZN8SPIClass6nssPinEv
                0x00000000       0x10 D:\projects\arduino\buildtemp\libraries\SPI\SPI.cpp.o
 .text._ZN8SPIClass4sendEh
                0x00000000        0xa D:\projects\arduino\buildtemp\libraries\SPI\SPI.cpp.o
 .text._ZN8SPIClass4sendEPhm
                0x00000000        0xc D:\projects\arduino\buildtemp\libraries\SPI\SPI.cpp.o
 .text._ZN8SPIClass4recvEv
                0x00000000        0xa D:\projects\arduino\buildtemp\libraries\SPI\SPI.cpp.o
 .data._ZL2ff   0x00000000        0x1 D:\projects\arduino\buildtemp\libraries\SPI\SPI.cpp.o
 .text          0x00000000        0x0 D:\projects\arduino\buildtemp\libraries\STM32ADC\STM32ADC.cpp.o
 .data          0x00000000        0x0 D:\projects\arduino\buildtemp\libraries\STM32ADC\STM32ADC.cpp.o
 .bss           0x00000000        0x0 D:\projects\arduino\buildtemp\libraries\STM32ADC\STM32ADC.cpp.o
 .text._ZN8STM32ADC21enableInternalReadingEv
                0x00000000        0x6 D:\projects\arduino\buildtemp\libraries\STM32ADC\STM32ADC.cpp.o
 .text._ZN8STM32ADC7readVccEv
                0x00000000       0x30 D:\projects\arduino\buildtemp\libraries\STM32ADC\STM32ADC.cpp.o
 .text._ZN8STM32ADC8readTempEv
                0x00000000       0x30 D:\projects\arduino\buildtemp\libraries\STM32ADC\STM32ADC.cpp.o
 .text._ZN8STM32ADC11setChannelsEPhh
                0x00000000        0x6 D:\projects\arduino\buildtemp\libraries\STM32ADC\STM32ADC.cpp.o
 .text._ZN8STM32ADC10setTriggerE16adc_extsel_event
                0x00000000        0x6 D:\projects\arduino\buildtemp\libraries\STM32ADC\STM32ADC.cpp.o
 .text._ZN8STM32ADC13setContinuousEv
                0x00000000        0xe D:\projects\arduino\buildtemp\libraries\STM32ADC\STM32ADC.cpp.o
 .text._ZN8STM32ADC15resetContinuousEv
                0x00000000        0xe D:\projects\arduino\buildtemp\libraries\STM32ADC\STM32ADC.cpp.o
 .text._ZN8STM32ADC11setScanModeEv
                0x00000000        0xe D:\projects\arduino\buildtemp\libraries\STM32ADC\STM32ADC.cpp.o
 .text._ZN8STM32ADC6setDMAEPttmPFvvE
                0x00000000       0x70 D:\projects\arduino\buildtemp\libraries\STM32ADC\STM32ADC.cpp.o
 .text._ZN8STM32ADC10setDualDMAEPmtm
                0x00000000       0x50 D:\projects\arduino\buildtemp\libraries\STM32ADC\STM32ADC.cpp.o
 .text._ZN8STM32ADC18attachDMAInterruptEPFvvE
                0x00000000       0x14 D:\projects\arduino\buildtemp\libraries\STM32ADC\STM32ADC.cpp.o
 .text._ZN8STM32ADC17setAnalogWatchdogEhmm
                0x00000000       0x24 D:\projects\arduino\buildtemp\libraries\STM32ADC\STM32ADC.cpp.o
 .text._ZN8STM32ADC17getAnalogWatchdogEv
                0x00000000        0x4 D:\projects\arduino\buildtemp\libraries\STM32ADC\STM32ADC.cpp.o
 .text._ZN8STM32ADC29attachAnalogWatchdogInterruptEPFvvE
                0x00000000        0x4 D:\projects\arduino\buildtemp\libraries\STM32ADC\STM32ADC.cpp.o
 .text          0x00000000        0x0 D:\projects\arduino\buildtemp\libraries\STM32ADC\utility\util_adc.c.o
 .data          0x00000000        0x0 D:\projects\arduino\buildtemp\libraries\STM32ADC\utility\util_adc.c.o
 .bss           0x00000000        0x0 D:\projects\arduino\buildtemp\libraries\STM32ADC\utility\util_adc.c.o
 .text.start_single_convert
                0x00000000       0x16 D:\projects\arduino\buildtemp\libraries\STM32ADC\utility\util_adc.c.o
 .text.start_continuous_convert
                0x00000000       0x1e D:\projects\arduino\buildtemp\libraries\STM32ADC\utility\util_adc.c.o
 .text.enable_adc_irq
                0x00000000       0x18 D:\projects\arduino\buildtemp\libraries\STM32ADC\utility\util_adc.c.o
 .text.enable_internal_reading
                0x00000000        0xc D:\projects\arduino\buildtemp\libraries\STM32ADC\utility\util_adc.c.o
 .text.internalRead
                0x00000000       0x16 D:\projects\arduino\buildtemp\libraries\STM32ADC\utility\util_adc.c.o
 .text.enable_awd_irq
                0x00000000       0x18 D:\projects\arduino\buildtemp\libraries\STM32ADC\utility\util_adc.c.o
 .text.set_awd_low_limit
                0x00000000        0x6 D:\projects\arduino\buildtemp\libraries\STM32ADC\utility\util_adc.c.o
 .text.set_awd_high_limit
                0x00000000        0x6 D:\projects\arduino\buildtemp\libraries\STM32ADC\utility\util_adc.c.o
 .text.set_awd_channel
                0x00000000        0xe D:\projects\arduino\buildtemp\libraries\STM32ADC\utility\util_adc.c.o
 .text.enable_awd
                0x00000000        0xc D:\projects\arduino\buildtemp\libraries\STM32ADC\utility\util_adc.c.o
 .text.adc_set_reg_seq_channel
                0x00000000       0x74 D:\projects\arduino\buildtemp\libraries\STM32ADC\utility\util_adc.c.o
 .text.adc_dma_disable
                0x00000000       0x10 D:\projects\arduino\buildtemp\libraries\STM32ADC\utility\util_adc.c.o
 .text.adc_dma_enable
                0x00000000       0x10 D:\projects\arduino\buildtemp\libraries\STM32ADC\utility\util_adc.c.o
 .text.poll_adc_convert
                0x00000000        0xe D:\projects\arduino\buildtemp\libraries\STM32ADC\utility\util_adc.c.o
 .bss.adc_result
                0x00000000        0x4 D:\projects\arduino\buildtemp\libraries\STM32ADC\utility\util_adc.c.o
 .text          0x00000000        0x0 D:\projects\arduino\buildtemp\core\board.cpp.o
 .data          0x00000000        0x0 D:\projects\arduino\buildtemp\core\board.cpp.o
 .bss           0x00000000        0x0 D:\projects\arduino\buildtemp\core\board.cpp.o
 .USER_FLASH    0x00000000       0x19 D:\projects\arduino\buildtemp\core\board.cpp.o
 .text          0x00000000        0x0 D:\projects\arduino\buildtemp\core\wirish\boards.cpp.o
 .data          0x00000000        0x0 D:\projects\arduino\buildtemp\core\wirish\boards.cpp.o
 .bss           0x00000000        0x0 D:\projects\arduino\buildtemp\core\wirish\boards.cpp.o
 .text._Z9boardInitv
                0x00000000        0x2 D:\projects\arduino\buildtemp\core\wirish\boards.cpp.o
 .text._Z12boardUsesPinh
                0x00000000       0x1c D:\projects\arduino\buildtemp\core\wirish\boards.cpp.o
 .text          0x00000000        0x0 D:\projects\arduino\buildtemp\core\wirish\boards_setup.cpp.o
 .data          0x00000000        0x0 D:\projects\arduino\buildtemp\core\wirish\boards_setup.cpp.o
 .bss           0x00000000        0x0 D:\projects\arduino\buildtemp\core\wirish\boards_setup.cpp.o
 .data          0x00000000        0x0 D:\projects\arduino\buildtemp\core\wirish\start.S.o
 .bss           0x00000000        0x0 D:\projects\arduino\buildtemp\core\wirish\start.S.o
 .ARM.extab     0x00000000        0x0 D:\projects\arduino\buildtemp\core\wirish\start.S.o
 .text          0x00000000        0x0 D:\projects\arduino\buildtemp\core\wirish\start_c.c.o
 .data          0x00000000        0x0 D:\projects\arduino\buildtemp\core\wirish\start_c.c.o
 .bss           0x00000000        0x0 D:\projects\arduino\buildtemp\core\wirish\start_c.c.o
 .text          0x00000000        0x0 D:\projects\arduino\buildtemp\core\wirish\syscalls.c.o
 .data          0x00000000        0x0 D:\projects\arduino\buildtemp\core\wirish\syscalls.c.o
 .bss           0x00000000        0x0 D:\projects\arduino\buildtemp\core\wirish\syscalls.c.o
 .text._open    0x00000000        0x8 D:\projects\arduino\buildtemp\core\wirish\syscalls.c.o
 .text._close   0x00000000        0x4 D:\projects\arduino\buildtemp\core\wirish\syscalls.c.o
 .text._fstat   0x00000000        0xa D:\projects\arduino\buildtemp\core\wirish\syscalls.c.o
 .text._isatty  0x00000000        0x4 D:\projects\arduino\buildtemp\core\wirish\syscalls.c.o
 .text.isatty   0x00000000        0x4 D:\projects\arduino\buildtemp\core\wirish\syscalls.c.o
 .text._lseek   0x00000000        0x6 D:\projects\arduino\buildtemp\core\wirish\syscalls.c.o
 .text.getch    0x00000000        0x4 D:\projects\arduino\buildtemp\core\wirish\syscalls.c.o
 .text._read    0x00000000        0xe D:\projects\arduino\buildtemp\core\wirish\syscalls.c.o
 .text.putch    0x00000000        0x2 D:\projects\arduino\buildtemp\core\wirish\syscalls.c.o
 .text.cgets    0x00000000       0x78 D:\projects\arduino\buildtemp\core\wirish\syscalls.c.o
 .text._write   0x00000000       0x1a D:\projects\arduino\buildtemp\core\wirish\syscalls.c.o
 .text.fgets    0x00000000        0xc D:\projects\arduino\buildtemp\core\wirish\syscalls.c.o
 .group         0x00000000        0x8 D:\projects\arduino\buildtemp\core\core.a(HardwareSerial.cpp.o)
 .text          0x00000000        0x0 D:\projects\arduino\buildtemp\core\core.a(HardwareSerial.cpp.o)
 .data          0x00000000        0x0 D:\projects\arduino\buildtemp\core\core.a(HardwareSerial.cpp.o)
 .bss           0x00000000        0x0 D:\projects\arduino\buildtemp\core\core.a(HardwareSerial.cpp.o)
 .text._ZN14HardwareSerial5beginEmh
                0x00000000       0x78 D:\projects\arduino\buildtemp\core\core.a(HardwareSerial.cpp.o)
 .text._ZN14HardwareSerial5beginEm
                0x00000000        0x6 D:\projects\arduino\buildtemp\core\core.a(HardwareSerial.cpp.o)
 .text._ZN14HardwareSerial3endEv
                0x00000000        0x6 D:\projects\arduino\buildtemp\core\core.a(HardwareSerial.cpp.o)
 .text._ZN14HardwareSerial17availableForWriteEv
                0x00000000       0x12 D:\projects\arduino\buildtemp\core\core.a(HardwareSerial.cpp.o)
 .rodata._ZTV6Stream
                0x00000000       0x28 D:\projects\arduino\buildtemp\core\core.a(HardwareSerial.cpp.o)
 .text          0x00000000        0x0 D:\projects\arduino\buildtemp\core\core.a(HardwareTimer.cpp.o)
 .data          0x00000000        0x0 D:\projects\arduino\buildtemp\core\core.a(HardwareTimer.cpp.o)
 .bss           0x00000000        0x0 D:\projects\arduino\buildtemp\core\core.a(HardwareTimer.cpp.o)
 .text._ZN13HardwareTimer17getPrescaleFactorEv
                0x00000000        0xc D:\projects\arduino\buildtemp\core\core.a(HardwareTimer.cpp.o)
 .text._ZN13HardwareTimer11getOverflowEv
                0x00000000        0xa D:\projects\arduino\buildtemp\core\core.a(HardwareTimer.cpp.o)
 .text._ZN13HardwareTimer8getCountEv
                0x00000000        0xa D:\projects\arduino\buildtemp\core\core.a(HardwareTimer.cpp.o)
 .text._ZN13HardwareTimer8setCountEt
                0x00000000       0x12 D:\projects\arduino\buildtemp\core\core.a(HardwareTimer.cpp.o)
 .text._ZN13HardwareTimer10getCompareEi
                0x00000000       0x16 D:\projects\arduino\buildtemp\core\core.a(HardwareTimer.cpp.o)
 .text._ZN13HardwareTimer15detachInterruptEi
                0x00000000        0x8 D:\projects\arduino\buildtemp\core\core.a(HardwareTimer.cpp.o)
 .text._ZN13HardwareTimer9enableDMAEi
                0x00000000       0x18 D:\projects\arduino\buildtemp\core\core.a(HardwareTimer.cpp.o)
 .text._ZN13HardwareTimer10disableDMAEi
                0x00000000       0x18 D:\projects\arduino\buildtemp\core\core.a(HardwareTimer.cpp.o)
 .text._ZN13HardwareTimer17setMasterModeTrGoEm
                0x00000000       0x14 D:\projects\arduino\buildtemp\core\core.a(HardwareTimer.cpp.o)
 .text          0x00000000        0x0 D:\projects\arduino\buildtemp\core\core.a(Print.cpp.o)
 .data          0x00000000        0x0 D:\projects\arduino\buildtemp\core\core.a(Print.cpp.o)
 .bss           0x00000000        0x0 D:\projects\arduino\buildtemp\core\core.a(Print.cpp.o)
 .text._ZN5Print5printERK6String
                0x00000000       0x10 D:\projects\arduino\buildtemp\core\core.a(Print.cpp.o)
 .text._ZN5Print5printEPK19__FlashStringHelper
                0x00000000        0x4 D:\projects\arduino\buildtemp\core\core.a(Print.cpp.o)
 .text._ZN5Print5printERK9Printable
                0x00000000       0x10 D:\projects\arduino\buildtemp\core\core.a(Print.cpp.o)
 .text._ZN5Print7printlnERK6String
                0x00000000       0x14 D:\projects\arduino\buildtemp\core\core.a(Print.cpp.o)
 .text._ZN5Print7printlnEc
                0x00000000       0x14 D:\projects\arduino\buildtemp\core\core.a(Print.cpp.o)
 .text._ZN5Print7printlnEPK19__FlashStringHelper
                0x00000000       0x14 D:\projects\arduino\buildtemp\core\core.a(Print.cpp.o)
 .text._ZN5Print7printlnERK9Printable
                0x00000000       0x14 D:\projects\arduino\buildtemp\core\core.a(Print.cpp.o)
 .text._ZN5Print5printEli
                0x00000000       0x12 D:\projects\arduino\buildtemp\core\core.a(Print.cpp.o)
 .text._ZN5Print7printlnEli
                0x00000000       0x1c D:\projects\arduino\buildtemp\core\core.a(Print.cpp.o)
 .text._ZN5Print7printlnExi
                0x00000000       0x1a D:\projects\arduino\buildtemp\core\core.a(Print.cpp.o)
 .text._ZN5Print7printlnEhi
                0x00000000       0x14 D:\projects\arduino\buildtemp\core\core.a(Print.cpp.o)
 .text._ZN5Print5printEji
                0x00000000       0x14 D:\projects\arduino\buildtemp\core\core.a(Print.cpp.o)
 .text._ZN5Print7printlnEji
                0x00000000       0x14 D:\projects\arduino\buildtemp\core\core.a(Print.cpp.o)
 .text._ZN5Print5printEmi
                0x00000000       0x14 D:\projects\arduino\buildtemp\core\core.a(Print.cpp.o)
 .text._ZN5Print7printlnEyi
                0x00000000       0x1c D:\projects\arduino\buildtemp\core\core.a(Print.cpp.o)
 .text._ZN5Print10printFloatEdh
                0x00000000      0x158 D:\projects\arduino\buildtemp\core\core.a(Print.cpp.o)
 .text._ZN5Print5printEdi
                0x00000000        0xa D:\projects\arduino\buildtemp\core\core.a(Print.cpp.o)
 .text._ZN5Print7printlnEdi
                0x00000000       0x1c D:\projects\arduino\buildtemp\core\core.a(Print.cpp.o)
 .rodata._ZTV5Print
                0x00000000       0x18 D:\projects\arduino\buildtemp\core\core.a(Print.cpp.o)
 .rodata.str1.1
                0x00000000       0x11 D:\projects\arduino\buildtemp\core\core.a(Print.cpp.o)
 .text          0x00000000        0x0 D:\projects\arduino\buildtemp\core\core.a(cxxabi-compat.cpp.o)
 .data          0x00000000        0x0 D:\projects\arduino\buildtemp\core\core.a(cxxabi-compat.cpp.o)
 .bss           0x00000000        0x0 D:\projects\arduino\buildtemp\core\core.a(cxxabi-compat.cpp.o)
 .text.__cxa_pure_virtual
                0x00000000        0x2 D:\projects\arduino\buildtemp\core\core.a(cxxabi-compat.cpp.o)
 .text          0x00000000        0x0 D:\projects\arduino\buildtemp\core\core.a(adc.c.o)
 .data          0x00000000        0x0 D:\projects\arduino\buildtemp\core\core.a(adc.c.o)
 .bss           0x00000000        0x0 D:\projects\arduino\buildtemp\core\core.a(adc.c.o)
 .text.adc_read
                0x00000000       0x20 D:\projects\arduino\buildtemp\core\core.a(adc.c.o)
 .text          0x00000000        0x0 D:\projects\arduino\buildtemp\core\core.a(adc_f1.c.o)
 .data          0x00000000        0x0 D:\projects\arduino\buildtemp\core\core.a(adc_f1.c.o)
 .bss           0x00000000        0x0 D:\projects\arduino\buildtemp\core\core.a(adc_f1.c.o)
 .text.adc_config_gpio
                0x00000000        0xa D:\projects\arduino\buildtemp\core\core.a(adc_f1.c.o)
 .text          0x00000000        0x0 D:\projects\arduino\buildtemp\core\core.a(dma.c.o)
 .data          0x00000000        0x0 D:\projects\arduino\buildtemp\core\core.a(dma.c.o)
 .bss           0x00000000        0x0 D:\projects\arduino\buildtemp\core\core.a(dma.c.o)
 .text._dma_addr_type
                0x00000000       0x28 D:\projects\arduino\buildtemp\core\core.a(dma.c.o)
 .text          0x00000000        0x0 D:\projects\arduino\buildtemp\core\core.a(dma_f1.c.o)
 .data          0x00000000        0x0 D:\projects\arduino\buildtemp\core\core.a(dma_f1.c.o)
 .bss           0x00000000        0x0 D:\projects\arduino\buildtemp\core\core.a(dma_f1.c.o)
 .text.dma_set_priority
                0x00000000       0x18 D:\projects\arduino\buildtemp\core\core.a(dma_f1.c.o)
 .text.dma_attach_interrupt
                0x00000000       0x28 D:\projects\arduino\buildtemp\core\core.a(dma_f1.c.o)
 .text.dma_detach_interrupt
                0x00000000       0x1c D:\projects\arduino\buildtemp\core\core.a(dma_f1.c.o)
 .text.dma_tube_cfg
                0x00000000      0x15c D:\projects\arduino\buildtemp\core\core.a(dma_f1.c.o)
 .text.dma_get_irq_cause
                0x00000000       0x3c D:\projects\arduino\buildtemp\core\core.a(dma_f1.c.o)
 .text.dma_set_mem_addr
                0x00000000       0x10 D:\projects\arduino\buildtemp\core\core.a(dma_f1.c.o)
 .text.dma_set_per_addr
                0x00000000       0x10 D:\projects\arduino\buildtemp\core\core.a(dma_f1.c.o)
 .data          0x00000000        0x0 D:\projects\arduino\buildtemp\core\core.a(exc.S.o)
 .bss           0x00000000        0x0 D:\projects\arduino\buildtemp\core\core.a(exc.S.o)
 .text          0x00000000        0x0 D:\projects\arduino\buildtemp\core\core.a(exti.c.o)
 .data          0x00000000        0x0 D:\projects\arduino\buildtemp\core\core.a(exti.c.o)
 .bss           0x00000000        0x0 D:\projects\arduino\buildtemp\core\core.a(exti.c.o)
 .text.exti_attach_callback
                0x00000000       0xac D:\projects\arduino\buildtemp\core\core.a(exti.c.o)
 .text.exti_attach_interrupt
                0x00000000       0x10 D:\projects\arduino\buildtemp\core\core.a(exti.c.o)
 .text.exti_detach_interrupt
                0x00000000       0x28 D:\projects\arduino\buildtemp\core\core.a(exti.c.o)
 .text.exti_do_select
                0x00000000       0x1a D:\projects\arduino\buildtemp\core\core.a(exti.c.o)
 .text          0x00000000        0x0 D:\projects\arduino\buildtemp\core\core.a(exti_f1.c.o)
 .data          0x00000000        0x0 D:\projects\arduino\buildtemp\core\core.a(exti_f1.c.o)
 .bss           0x00000000        0x0 D:\projects\arduino\buildtemp\core\core.a(exti_f1.c.o)
 .text.exti_select
                0x00000000       0x18 D:\projects\arduino\buildtemp\core\core.a(exti_f1.c.o)
 .text          0x00000000        0x0 D:\projects\arduino\buildtemp\core\core.a(flash.c.o)
 .data          0x00000000        0x0 D:\projects\arduino\buildtemp\core\core.a(flash.c.o)
 .bss           0x00000000        0x0 D:\projects\arduino\buildtemp\core\core.a(flash.c.o)
 .text          0x00000000        0x0 D:\projects\arduino\buildtemp\core\core.a(gpio_f1.c.o)
 .data          0x00000000        0x0 D:\projects\arduino\buildtemp\core\core.a(gpio_f1.c.o)
 .bss           0x00000000        0x0 D:\projects\arduino\buildtemp\core\core.a(gpio_f1.c.o)
 .text.gpio_get_mode
                0x00000000       0x2a D:\projects\arduino\buildtemp\core\core.a(gpio_f1.c.o)
 .text.afio_remap
                0x00000000       0x20 D:\projects\arduino\buildtemp\core\core.a(gpio_f1.c.o)
 .rodata.GPIOA  0x00000000        0x4 D:\projects\arduino\buildtemp\core\core.a(gpio_f1.c.o)
 .rodata.GPIOB  0x00000000        0x4 D:\projects\arduino\buildtemp\core\core.a(gpio_f1.c.o)
 .rodata.GPIOD  0x00000000        0x4 D:\projects\arduino\buildtemp\core\core.a(gpio_f1.c.o)
 .text          0x00000000        0x0 D:\projects\arduino\buildtemp\core\core.a(i2c_f1.c.o)
 .data          0x00000000        0x0 D:\projects\arduino\buildtemp\core\core.a(i2c_f1.c.o)
 .bss           0x00000000        0x0 D:\projects\arduino\buildtemp\core\core.a(i2c_f1.c.o)
 .text.i2c_config_gpios
                0x00000000       0x58 D:\projects\arduino\buildtemp\core\core.a(i2c_f1.c.o)
 .text.i2c_master_release_bus
                0x00000000       0x4c D:\projects\arduino\buildtemp\core\core.a(i2c_f1.c.o)
 .rodata.I2C1   0x00000000        0x4 D:\projects\arduino\buildtemp\core\core.a(i2c_f1.c.o)
 .rodata.I2C2   0x00000000        0x4 D:\projects\arduino\buildtemp\core\core.a(i2c_f1.c.o)
 .text          0x00000000        0x0 D:\projects\arduino\buildtemp\core\core.a(nvic.c.o)
 .data          0x00000000        0x0 D:\projects\arduino\buildtemp\core\core.a(nvic.c.o)
 .bss           0x00000000        0x0 D:\projects\arduino\buildtemp\core\core.a(nvic.c.o)
 .text.nvic_set_vector_table
                0x00000000       0x14 D:\projects\arduino\buildtemp\core\core.a(nvic.c.o)
 .text          0x00000000        0x0 D:\projects\arduino\buildtemp\core\core.a(rcc.c.o)
 .data          0x00000000        0x0 D:\projects\arduino\buildtemp\core\core.a(rcc.c.o)
 .bss           0x00000000        0x0 D:\projects\arduino\buildtemp\core\core.a(rcc.c.o)
 .text.rcc_is_clk_on
                0x00000000       0x1e D:\projects\arduino\buildtemp\core\core.a(rcc.c.o)
 .text          0x00000000        0x0 D:\projects\arduino\buildtemp\core\core.a(rcc_f1.c.o)
 .data          0x00000000        0x0 D:\projects\arduino\buildtemp\core\core.a(rcc_f1.c.o)
 .bss           0x00000000        0x0 D:\projects\arduino\buildtemp\core\core.a(rcc_f1.c.o)
 .text.rcc_clk_init
                0x00000000       0x3c D:\projects\arduino\buildtemp\core\core.a(rcc_f1.c.o)
 .text          0x00000000        0x0 D:\projects\arduino\buildtemp\core\core.a(spi.c.o)
 .data          0x00000000        0x0 D:\projects\arduino\buildtemp\core\core.a(spi.c.o)
 .bss           0x00000000        0x0 D:\projects\arduino\buildtemp\core\core.a(spi.c.o)
 .text.spi_tx   0x00000000       0x38 D:\projects\arduino\buildtemp\core\core.a(spi.c.o)
 .text.spi_slave_enable
                0x00000000        0x6 D:\projects\arduino\buildtemp\core\core.a(spi.c.o)
 .text.spi_rx_dma_enable
                0x00000000        0xc D:\projects\arduino\buildtemp\core\core.a(spi.c.o)
 .text.spi_rx_dma_disable
                0x00000000        0xc D:\projects\arduino\buildtemp\core\core.a(spi.c.o)
 .text          0x00000000        0x0 D:\projects\arduino\buildtemp\core\core.a(spi_f1.c.o)
 .data          0x00000000        0x0 D:\projects\arduino\buildtemp\core\core.a(spi_f1.c.o)
 .bss           0x00000000        0x0 D:\projects\arduino\buildtemp\core\core.a(spi_f1.c.o)
 .text.spi_foreach
                0x00000000       0x1c D:\projects\arduino\buildtemp\core\core.a(spi_f1.c.o)
 .data          0x00000000        0x0 D:\projects\arduino\buildtemp\core\core.a(isrs.S.o)
 .bss           0x00000000        0x0 D:\projects\arduino\buildtemp\core\core.a(isrs.S.o)
 .text          0x00000000        0x0 D:\projects\arduino\buildtemp\core\core.a(vector_table.S.o)
 .data          0x00000000        0x0 D:\projects\arduino\buildtemp\core\core.a(vector_table.S.o)
 .bss           0x00000000        0x0 D:\projects\arduino\buildtemp\core\core.a(vector_table.S.o)
 .text          0x00000000        0x0 D:\projects\arduino\buildtemp\core\core.a(systick.c.o)
 .data          0x00000000        0x0 D:\projects\arduino\buildtemp\core\core.a(systick.c.o)
 .bss           0x00000000        0x0 D:\projects\arduino\buildtemp\core\core.a(systick.c.o)
 .text.systick_disable
                0x00000000        0xc D:\projects\arduino\buildtemp\core\core.a(systick.c.o)
 .text.systick_enable
                0x00000000        0xc D:\projects\arduino\buildtemp\core\core.a(systick.c.o)
 .text.systick_attach_callback
                0x00000000        0xc D:\projects\arduino\buildtemp\core\core.a(systick.c.o)
 .text          0x00000000        0x0 D:\projects\arduino\buildtemp\core\core.a(timer.c.o)
 .data          0x00000000        0x0 D:\projects\arduino\buildtemp\core\core.a(timer.c.o)
 .bss           0x00000000        0x0 D:\projects\arduino\buildtemp\core\core.a(timer.c.o)
 .text.timer_disable
                0x00000000       0x12 D:\projects\arduino\buildtemp\core\core.a(timer.c.o)
 .text.get_direction
                0x00000000        0xe D:\projects\arduino\buildtemp\core\core.a(timer.c.o)
 .rodata.TIMER1
                0x00000000        0x4 D:\projects\arduino\buildtemp\core\core.a(timer.c.o)
 .rodata.TIMER2
                0x00000000        0x4 D:\projects\arduino\buildtemp\core\core.a(timer.c.o)
 .rodata.TIMER3
                0x00000000        0x4 D:\projects\arduino\buildtemp\core\core.a(timer.c.o)
 .rodata.TIMER4
                0x00000000        0x4 D:\projects\arduino\buildtemp\core\core.a(timer.c.o)
 .text          0x00000000        0x0 D:\projects\arduino\buildtemp\core\core.a(usart.c.o)
 .data          0x00000000        0x0 D:\projects\arduino\buildtemp\core\core.a(usart.c.o)
 .bss           0x00000000        0x0 D:\projects\arduino\buildtemp\core\core.a(usart.c.o)
 .text.usart_init
                0x00000000       0x4c D:\projects\arduino\buildtemp\core\core.a(usart.c.o)
 .text.usart_enable
                0x00000000       0x14 D:\projects\arduino\buildtemp\core\core.a(usart.c.o)
 .text.usart_disable
                0x00000000       0x38 D:\projects\arduino\buildtemp\core\core.a(usart.c.o)
 .text.usart_rx
                0x00000000       0x58 D:\projects\arduino\buildtemp\core\core.a(usart.c.o)
 .text.usart_putudec
                0x00000000       0x44 D:\projects\arduino\buildtemp\core\core.a(usart.c.o)
 .text          0x00000000        0x0 D:\projects\arduino\buildtemp\core\core.a(usart_f1.c.o)
 .data          0x00000000        0x0 D:\projects\arduino\buildtemp\core\core.a(usart_f1.c.o)
 .bss           0x00000000        0x0 D:\projects\arduino\buildtemp\core\core.a(usart_f1.c.o)
 .text.usart_config_gpios_async
                0x00000000       0x4a D:\projects\arduino\buildtemp\core\core.a(usart_f1.c.o)
 .text.usart_set_baud_rate
                0x00000000       0x3c D:\projects\arduino\buildtemp\core\core.a(usart_f1.c.o)
 .text.usart_foreach
                0x00000000       0x24 D:\projects\arduino\buildtemp\core\core.a(usart_f1.c.o)
 .text          0x00000000        0x0 D:\projects\arduino\buildtemp\core\core.a(usart_private.c.o)
 .data          0x00000000        0x0 D:\projects\arduino\buildtemp\core\core.a(usart_private.c.o)
 .bss           0x00000000        0x0 D:\projects\arduino\buildtemp\core\core.a(usart_private.c.o)
 .text._usart_clock_freq
                0x00000000       0x24 D:\projects\arduino\buildtemp\core\core.a(usart_private.c.o)
 .text          0x00000000        0x0 D:\projects\arduino\buildtemp\core\core.a(usb.c.o)
 .data          0x00000000        0x0 D:\projects\arduino\buildtemp\core\core.a(usb.c.o)
 .bss           0x00000000        0x0 D:\projects\arduino\buildtemp\core\core.a(usb.c.o)
 .text.usb_power_off
                0x00000000       0x14 D:\projects\arduino\buildtemp\core\core.a(usb.c.o)
 .text          0x00000000        0x0 D:\projects\arduino\buildtemp\core\core.a(usb_cdcacm.c.o)
 .data          0x00000000        0x0 D:\projects\arduino\buildtemp\core\core.a(usb_cdcacm.c.o)
 .bss           0x00000000        0x0 D:\projects\arduino\buildtemp\core\core.a(usb_cdcacm.c.o)
 .text.usb_cdcacm_disable
                0x00000000       0x20 D:\projects\arduino\buildtemp\core\core.a(usb_cdcacm.c.o)
 .text.usb_cdcacm_putc
                0x00000000       0x1a D:\projects\arduino\buildtemp\core\core.a(usb_cdcacm.c.o)
 .text.usb_cdcacm_is_transmitting
                0x00000000       0x14 D:\projects\arduino\buildtemp\core\core.a(usb_cdcacm.c.o)
 .text.usb_cdcacm_get_pending
                0x00000000       0x18 D:\projects\arduino\buildtemp\core\core.a(usb_cdcacm.c.o)
 .text.usb_cdcacm_tx_available
                0x00000000        0xc D:\projects\arduino\buildtemp\core\core.a(usb_cdcacm.c.o)
 .text.usb_cdcacm_peek_char
                0x00000000       0x24 D:\projects\arduino\buildtemp\core\core.a(usb_cdcacm.c.o)
 .text.usb_cdcacm_get_rts
                0x00000000       0x10 D:\projects\arduino\buildtemp\core\core.a(usb_cdcacm.c.o)
 .text.usb_cdcacm_get_line_coding
                0x00000000       0x18 D:\projects\arduino\buildtemp\core\core.a(usb_cdcacm.c.o)
 .text.usb_cdcacm_get_baud
                0x00000000        0xc D:\projects\arduino\buildtemp\core\core.a(usb_cdcacm.c.o)
 .text.usb_cdcacm_get_stop_bits
                0x00000000        0xc D:\projects\arduino\buildtemp\core\core.a(usb_cdcacm.c.o)
 .text.usb_cdcacm_get_parity
                0x00000000        0xc D:\projects\arduino\buildtemp\core\core.a(usb_cdcacm.c.o)
 .text.usb_cdcacm_get_n_data_bits
                0x00000000        0xc D:\projects\arduino\buildtemp\core\core.a(usb_cdcacm.c.o)
 .text          0x00000000        0x0 D:\projects\arduino\buildtemp\core\core.a(usb_reg_map.c.o)
 .data          0x00000000        0x0 D:\projects\arduino\buildtemp\core\core.a(usb_reg_map.c.o)
 .bss           0x00000000        0x0 D:\projects\arduino\buildtemp\core\core.a(usb_reg_map.c.o)
 .text          0x00000000        0x0 D:\projects\arduino\buildtemp\core\core.a(usb_core.c.o)
 .data          0x00000000        0x0 D:\projects\arduino\buildtemp\core\core.a(usb_core.c.o)
 .bss           0x00000000        0x0 D:\projects\arduino\buildtemp\core\core.a(usb_core.c.o)
 .text          0x00000000        0x0 D:\projects\arduino\buildtemp\core\core.a(usb_init.c.o)
 .data          0x00000000        0x0 D:\projects\arduino\buildtemp\core\core.a(usb_init.c.o)
 .bss           0x00000000        0x0 D:\projects\arduino\buildtemp\core\core.a(usb_init.c.o)
 .text.USB_Init
                0x00000000       0x38 D:\projects\arduino\buildtemp\core\core.a(usb_init.c.o)
 .text          0x00000000        0x0 D:\projects\arduino\buildtemp\core\core.a(usb_mem.c.o)
 .data          0x00000000        0x0 D:\projects\arduino\buildtemp\core\core.a(usb_mem.c.o)
 .bss           0x00000000        0x0 D:\projects\arduino\buildtemp\core\core.a(usb_mem.c.o)
 .text          0x00000000        0x0 D:\projects\arduino\buildtemp\core\core.a(usb_regs.c.o)
 .data          0x00000000        0x0 D:\projects\arduino\buildtemp\core\core.a(usb_regs.c.o)
 .bss           0x00000000        0x0 D:\projects\arduino\buildtemp\core\core.a(usb_regs.c.o)
 .text.SetCNTR  0x00000000        0xc D:\projects\arduino\buildtemp\core\core.a(usb_regs.c.o)
 .text.GetCNTR  0x00000000        0xc D:\projects\arduino\buildtemp\core\core.a(usb_regs.c.o)
 .text.SetISTR  0x00000000        0xc D:\projects\arduino\buildtemp\core\core.a(usb_regs.c.o)
 .text.GetISTR  0x00000000        0xc D:\projects\arduino\buildtemp\core\core.a(usb_regs.c.o)
 .text.GetFNR   0x00000000        0xc D:\projects\arduino\buildtemp\core\core.a(usb_regs.c.o)
 .text.SetDADDR
                0x00000000        0xc D:\projects\arduino\buildtemp\core\core.a(usb_regs.c.o)
 .text.GetDADDR
                0x00000000        0xc D:\projects\arduino\buildtemp\core\core.a(usb_regs.c.o)
 .text.SetBTABLE
                0x00000000       0x10 D:\projects\arduino\buildtemp\core\core.a(usb_regs.c.o)
 .text.GetBTABLE
                0x00000000        0xc D:\projects\arduino\buildtemp\core\core.a(usb_regs.c.o)
 .text.SetENDPOINT
                0x00000000        0xe D:\projects\arduino\buildtemp\core\core.a(usb_regs.c.o)
 .text.GetENDPOINT
                0x00000000       0x10 D:\projects\arduino\buildtemp\core\core.a(usb_regs.c.o)
 .text.SetEPType
                0x00000000       0x1c D:\projects\arduino\buildtemp\core\core.a(usb_regs.c.o)
 .text.GetEPType
                0x00000000       0x12 D:\projects\arduino\buildtemp\core\core.a(usb_regs.c.o)
 .text.SetEPRxStatus
                0x00000000       0x2a D:\projects\arduino\buildtemp\core\core.a(usb_regs.c.o)
 .text.SetDouBleBuffEPStall
                0x00000000       0x24 D:\projects\arduino\buildtemp\core\core.a(usb_regs.c.o)
 .text.GetEPTxStatus
                0x00000000       0x12 D:\projects\arduino\buildtemp\core\core.a(usb_regs.c.o)
 .text.GetEPRxStatus
                0x00000000       0x12 D:\projects\arduino\buildtemp\core\core.a(usb_regs.c.o)
 .text.SetEPTxValid
                0x00000000       0x1e D:\projects\arduino\buildtemp\core\core.a(usb_regs.c.o)
 .text.SetEPRxValid
                0x00000000       0x1e D:\projects\arduino\buildtemp\core\core.a(usb_regs.c.o)
 .text.SetEP_KIND
                0x00000000       0x1e D:\projects\arduino\buildtemp\core\core.a(usb_regs.c.o)
 .text.ClearEP_KIND
                0x00000000       0x1c D:\projects\arduino\buildtemp\core\core.a(usb_regs.c.o)
 .text.Clear_Status_Out
                0x00000000       0x1c D:\projects\arduino\buildtemp\core\core.a(usb_regs.c.o)
 .text.Set_Status_Out
                0x00000000       0x1e D:\projects\arduino\buildtemp\core\core.a(usb_regs.c.o)
 .text.SetEPDoubleBuff
                0x00000000       0x1e D:\projects\arduino\buildtemp\core\core.a(usb_regs.c.o)
 .text.ClearEPDoubleBuff
                0x00000000       0x1c D:\projects\arduino\buildtemp\core\core.a(usb_regs.c.o)
 .text.GetTxStallStatus
                0x00000000       0x1a D:\projects\arduino\buildtemp\core\core.a(usb_regs.c.o)
 .text.GetRxStallStatus
                0x00000000       0x1a D:\projects\arduino\buildtemp\core\core.a(usb_regs.c.o)
 .text.ClearEP_CTR_RX
                0x00000000       0x18 D:\projects\arduino\buildtemp\core\core.a(usb_regs.c.o)
 .text.ClearEP_CTR_TX
                0x00000000       0x1c D:\projects\arduino\buildtemp\core\core.a(usb_regs.c.o)
 .text.ToggleDTOG_RX
                0x00000000       0x20 D:\projects\arduino\buildtemp\core\core.a(usb_regs.c.o)
 .text.ToggleDTOG_TX
                0x00000000       0x20 D:\projects\arduino\buildtemp\core\core.a(usb_regs.c.o)
 .text.SetEPAddress
                0x00000000       0x1e D:\projects\arduino\buildtemp\core\core.a(usb_regs.c.o)
 .text.GetEPAddress
                0x00000000       0x12 D:\projects\arduino\buildtemp\core\core.a(usb_regs.c.o)
 .text.SetEPTxAddr
                0x00000000       0x20 D:\projects\arduino\buildtemp\core\core.a(usb_regs.c.o)
 .text.SetEPRxAddr
                0x00000000       0x20 D:\projects\arduino\buildtemp\core\core.a(usb_regs.c.o)
 .text.SetEPCountRxReg
                0x00000000       0x26 D:\projects\arduino\buildtemp\core\core.a(usb_regs.c.o)
 .text.GetEPTxCount
                0x00000000       0x20 D:\projects\arduino\buildtemp\core\core.a(usb_regs.c.o)
 .text.GetEPRxCount
                0x00000000       0x20 D:\projects\arduino\buildtemp\core\core.a(usb_regs.c.o)
 .text.SetEPDblBuffAddr
                0x00000000       0x38 D:\projects\arduino\buildtemp\core\core.a(usb_regs.c.o)
 .text.SetEPDblBuf0Addr
                0x00000000       0x20 D:\projects\arduino\buildtemp\core\core.a(usb_regs.c.o)
 .text.SetEPDblBuf1Addr
                0x00000000       0x20 D:\projects\arduino\buildtemp\core\core.a(usb_regs.c.o)
 .text.GetEPDblBuf0Addr
                0x00000000       0x1c D:\projects\arduino\buildtemp\core\core.a(usb_regs.c.o)
 .text.GetEPDblBuf1Addr
                0x00000000       0x1c D:\projects\arduino\buildtemp\core\core.a(usb_regs.c.o)
 .text.SetEPDblBuffCount
                0x00000000       0xa8 D:\projects\arduino\buildtemp\core\core.a(usb_regs.c.o)
 .text.SetEPDblBuf0Count
                0x00000000       0x5c D:\projects\arduino\buildtemp\core\core.a(usb_regs.c.o)
 .text.SetEPDblBuf1Count
                0x00000000       0x5c D:\projects\arduino\buildtemp\core\core.a(usb_regs.c.o)
 .text.GetEPDblBuf0Count
                0x00000000       0x20 D:\projects\arduino\buildtemp\core\core.a(usb_regs.c.o)
 .text.GetEPDblBuf1Count
                0x00000000       0x20 D:\projects\arduino\buildtemp\core\core.a(usb_regs.c.o)
 .text.GetEPDblBufDir
                0x00000000       0x44 D:\projects\arduino\buildtemp\core\core.a(usb_regs.c.o)
 .text.FreeUserBuffer
                0x00000000       0x3a D:\projects\arduino\buildtemp\core\core.a(usb_regs.c.o)
 .text.ToWord   0x00000000        0x6 D:\projects\arduino\buildtemp\core\core.a(usb_regs.c.o)
 .text.ByteSwap
                0x00000000        0xa D:\projects\arduino\buildtemp\core\core.a(usb_regs.c.o)
 .text          0x00000000        0x0 D:\projects\arduino\buildtemp\core\core.a(util.c.o)
 .data          0x00000000        0x0 D:\projects\arduino\buildtemp\core\core.a(util.c.o)
 .bss           0x00000000        0x0 D:\projects\arduino\buildtemp\core\core.a(util.c.o)
 .text._fail    0x00000000       0x64 D:\projects\arduino\buildtemp\core\core.a(util.c.o)
 .text.__assert_func
                0x00000000        0x8 D:\projects\arduino\buildtemp\core\core.a(util.c.o)
 .text          0x00000000        0x0 D:\projects\arduino\buildtemp\core\core.a(main.cpp.o)
 .data          0x00000000        0x0 D:\projects\arduino\buildtemp\core\core.a(main.cpp.o)
 .bss           0x00000000        0x0 D:\projects\arduino\buildtemp\core\core.a(main.cpp.o)
 .text          0x00000000        0x0 D:\projects\arduino\buildtemp\core\core.a(pwm.cpp.o)
 .data          0x00000000        0x0 D:\projects\arduino\buildtemp\core\core.a(pwm.cpp.o)
 .bss           0x00000000        0x0 D:\projects\arduino\buildtemp\core\core.a(pwm.cpp.o)
 .text._Z11analogWritehi
                0x00000000       0x1c D:\projects\arduino\buildtemp\core\core.a(pwm.cpp.o)
 .text          0x00000000        0x0 D:\projects\arduino\buildtemp\core\core.a(wirish_digital_f1.cpp.o)
 .data          0x00000000        0x0 D:\projects\arduino\buildtemp\core\core.a(wirish_digital_f1.cpp.o)
 .bss           0x00000000        0x0 D:\projects\arduino\buildtemp\core\core.a(wirish_digital_f1.cpp.o)
 .group         0x00000000        0x8 D:\projects\arduino\buildtemp\core\core.a(usb_serial.cpp.o)
 .text          0x00000000        0x0 D:\projects\arduino\buildtemp\core\core.a(usb_serial.cpp.o)
 .data          0x00000000        0x0 D:\projects\arduino\buildtemp\core\core.a(usb_serial.cpp.o)
 .bss           0x00000000        0x0 D:\projects\arduino\buildtemp\core\core.a(usb_serial.cpp.o)
 .text._ZN9USBSerial5beginEmh
                0x00000000       0x18 D:\projects\arduino\buildtemp\core\core.a(usb_serial.cpp.o)
 .text._ZN9USBSerial3endEv
                0x00000000       0x20 D:\projects\arduino\buildtemp\core\core.a(usb_serial.cpp.o)
 .text._ZN9USBSerial17availableForWriteEv
                0x00000000        0x4 D:\projects\arduino\buildtemp\core\core.a(usb_serial.cpp.o)
 .text._ZN9USBSerial9readBytesEPcRKj
                0x00000000       0x40 D:\projects\arduino\buildtemp\core\core.a(usb_serial.cpp.o)
 .text._ZN9USBSerial7pendingEv
                0x00000000        0xa D:\projects\arduino\buildtemp\core\core.a(usb_serial.cpp.o)
 .text._ZN9USBSerial6getDTREv
                0x00000000        0x4 D:\projects\arduino\buildtemp\core\core.a(usb_serial.cpp.o)
 .text._ZN9USBSerial6getRTSEv
                0x00000000        0x4 D:\projects\arduino\buildtemp\core\core.a(usb_serial.cpp.o)
 .rodata._ZTV6Stream
                0x00000000       0x28 D:\projects\arduino\buildtemp\core\core.a(usb_serial.cpp.o)
 .text          0x00000000        0x0 D:\projects\arduino\buildtemp\core\core.a(wirish_digital.cpp.o)
 .data          0x00000000        0x0 D:\projects\arduino\buildtemp\core\core.a(wirish_digital.cpp.o)
 .bss           0x00000000        0x0 D:\projects\arduino\buildtemp\core\core.a(wirish_digital.cpp.o)
 .text._Z12digitalWritehh
                0x00000000       0x2c D:\projects\arduino\buildtemp\core\core.a(wirish_digital.cpp.o)
 .text          0x00000000        0x0 D:\projects\arduino\buildtemp\core\core.a(bkp_f1.c.o)
 .data          0x00000000        0x0 D:\projects\arduino\buildtemp\core\core.a(bkp_f1.c.o)
 .bss           0x00000000        0x0 D:\projects\arduino\buildtemp\core\core.a(bkp_f1.c.o)
 .text.bkp_read
                0x00000000       0x1c D:\projects\arduino\buildtemp\core\core.a(bkp_f1.c.o)
 .data.bkp      0x00000000        0x4 D:\projects\arduino\buildtemp\core\core.a(bkp_f1.c.o)
 .data.BKP      0x00000000        0x4 D:\projects\arduino\buildtemp\core\core.a(bkp_f1.c.o)
 .text          0x00000000        0x0 D:\projects\arduino\buildtemp\core\core.a(gpio.c.o)
 .data          0x00000000        0x0 D:\projects\arduino\buildtemp\core\core.a(gpio.c.o)
 .bss           0x00000000        0x0 D:\projects\arduino\buildtemp\core\core.a(gpio.c.o)
 .text          0x00000000        0x0 D:\projects\arduino\buildtemp\core\core.a(i2c.c.o)
 .data          0x00000000        0x0 D:\projects\arduino\buildtemp\core\core.a(i2c.c.o)
 .bss           0x00000000        0x0 D:\projects\arduino\buildtemp\core\core.a(i2c.c.o)
 .text.delay_us.part.0.constprop.6
                0x00000000        0xa D:\projects\arduino\buildtemp\core\core.a(i2c.c.o)
 .text.i2c_bus_reset
                0x00000000       0xb2 D:\projects\arduino\buildtemp\core\core.a(i2c.c.o)
 .text.i2c_init
                0x00000000       0x18 D:\projects\arduino\buildtemp\core\core.a(i2c.c.o)
 .text.i2c_master_enable
                0x00000000       0xe0 D:\projects\arduino\buildtemp\core\core.a(i2c.c.o)
 .text.i2c_master_xfer
                0x00000000       0x5c D:\projects\arduino\buildtemp\core\core.a(i2c.c.o)
 .text          0x00000000        0x0 c:/users/softegg/appdata/local/arduino15/packages/arduino/tools/arm-none-eabi-gcc/4.8.3-2014q1/bin/../lib/gcc/arm-none-eabi/4.8.3/../../../../arm-none-eabi/lib/armv7-m\libstdc++.a(atexit_arm.o)
 .data          0x00000000        0x0 c:/users/softegg/appdata/local/arduino15/packages/arduino/tools/arm-none-eabi-gcc/4.8.3-2014q1/bin/../lib/gcc/arm-none-eabi/4.8.3/../../../../arm-none-eabi/lib/armv7-m\libstdc++.a(atexit_arm.o)
 .bss           0x00000000        0x0 c:/users/softegg/appdata/local/arduino15/packages/arduino/tools/arm-none-eabi-gcc/4.8.3-2014q1/bin/../lib/gcc/arm-none-eabi/4.8.3/../../../../arm-none-eabi/lib/armv7-m\libstdc++.a(atexit_arm.o)
 .ARM.extab.text.__aeabi_atexit
                0x00000000        0x0 c:/users/softegg/appdata/local/arduino15/packages/arduino/tools/arm-none-eabi-gcc/4.8.3-2014q1/bin/../lib/gcc/arm-none-eabi/4.8.3/../../../../arm-none-eabi/lib/armv7-m\libstdc++.a(atexit_arm.o)
 .text          0x00000000        0x0 c:/users/softegg/appdata/local/arduino15/packages/arduino/tools/arm-none-eabi-gcc/4.8.3-2014q1/bin/../lib/gcc/arm-none-eabi/4.8.3/../../../../arm-none-eabi/lib/armv7-m\libm.a(lib_a-w_pow.o)
 .data          0x00000000        0x0 c:/users/softegg/appdata/local/arduino15/packages/arduino/tools/arm-none-eabi-gcc/4.8.3-2014q1/bin/../lib/gcc/arm-none-eabi/4.8.3/../../../../arm-none-eabi/lib/armv7-m\libm.a(lib_a-w_pow.o)
 .bss           0x00000000        0x0 c:/users/softegg/appdata/local/arduino15/packages/arduino/tools/arm-none-eabi-gcc/4.8.3-2014q1/bin/../lib/gcc/arm-none-eabi/4.8.3/../../../../arm-none-eabi/lib/armv7-m\libm.a(lib_a-w_pow.o)
 .text          0x00000000        0x0 c:/users/softegg/appdata/local/arduino15/packages/arduino/tools/arm-none-eabi-gcc/4.8.3-2014q1/bin/../lib/gcc/arm-none-eabi/4.8.3/../../../../arm-none-eabi/lib/armv7-m\libm.a(lib_a-e_pow.o)
 .data          0x00000000        0x0 c:/users/softegg/appdata/local/arduino15/packages/arduino/tools/arm-none-eabi-gcc/4.8.3-2014q1/bin/../lib/gcc/arm-none-eabi/4.8.3/../../../../arm-none-eabi/lib/armv7-m\libm.a(lib_a-e_pow.o)
 .bss           0x00000000        0x0 c:/users/softegg/appdata/local/arduino15/packages/arduino/tools/arm-none-eabi-gcc/4.8.3-2014q1/bin/../lib/gcc/arm-none-eabi/4.8.3/../../../../arm-none-eabi/lib/armv7-m\libm.a(lib_a-e_pow.o)
 .text          0x00000000        0x0 c:/users/softegg/appdata/local/arduino15/packages/arduino/tools/arm-none-eabi-gcc/4.8.3-2014q1/bin/../lib/gcc/arm-none-eabi/4.8.3/../../../../arm-none-eabi/lib/armv7-m\libm.a(lib_a-e_sqrt.o)
 .data          0x00000000        0x0 c:/users/softegg/appdata/local/arduino15/packages/arduino/tools/arm-none-eabi-gcc/4.8.3-2014q1/bin/../lib/gcc/arm-none-eabi/4.8.3/../../../../arm-none-eabi/lib/armv7-m\libm.a(lib_a-e_sqrt.o)
 .bss           0x00000000        0x0 c:/users/softegg/appdata/local/arduino15/packages/arduino/tools/arm-none-eabi-gcc/4.8.3-2014q1/bin/../lib/gcc/arm-none-eabi/4.8.3/../../../../arm-none-eabi/lib/armv7-m\libm.a(lib_a-e_sqrt.o)
 .text          0x00000000        0x0 c:/users/softegg/appdata/local/arduino15/packages/arduino/tools/arm-none-eabi-gcc/4.8.3-2014q1/bin/../lib/gcc/arm-none-eabi/4.8.3/../../../../arm-none-eabi/lib/armv7-m\libm.a(lib_a-s_fabs.o)
 .data          0x00000000        0x0 c:/users/softegg/appdata/local/arduino15/packages/arduino/tools/arm-none-eabi-gcc/4.8.3-2014q1/bin/../lib/gcc/arm-none-eabi/4.8.3/../../../../arm-none-eabi/lib/armv7-m\libm.a(lib_a-s_fabs.o)
 .bss           0x00000000        0x0 c:/users/softegg/appdata/local/arduino15/packages/arduino/tools/arm-none-eabi-gcc/4.8.3-2014q1/bin/../lib/gcc/arm-none-eabi/4.8.3/../../../../arm-none-eabi/lib/armv7-m\libm.a(lib_a-s_fabs.o)
 .text          0x00000000        0x0 c:/users/softegg/appdata/local/arduino15/packages/arduino/tools/arm-none-eabi-gcc/4.8.3-2014q1/bin/../lib/gcc/arm-none-eabi/4.8.3/../../../../arm-none-eabi/lib/armv7-m\libm.a(lib_a-s_finite.o)
 .data          0x00000000        0x0 c:/users/softegg/appdata/local/arduino15/packages/arduino/tools/arm-none-eabi-gcc/4.8.3-2014q1/bin/../lib/gcc/arm-none-eabi/4.8.3/../../../../arm-none-eabi/lib/armv7-m\libm.a(lib_a-s_finite.o)
 .bss           0x00000000        0x0 c:/users/softegg/appdata/local/arduino15/packages/arduino/tools/arm-none-eabi-gcc/4.8.3-2014q1/bin/../lib/gcc/arm-none-eabi/4.8.3/../../../../arm-none-eabi/lib/armv7-m\libm.a(lib_a-s_finite.o)
 .text          0x00000000        0x0 c:/users/softegg/appdata/local/arduino15/packages/arduino/tools/arm-none-eabi-gcc/4.8.3-2014q1/bin/../lib/gcc/arm-none-eabi/4.8.3/../../../../arm-none-eabi/lib/armv7-m\libm.a(lib_a-s_fpclassify.o)
 .data          0x00000000        0x0 c:/users/softegg/appdata/local/arduino15/packages/arduino/tools/arm-none-eabi-gcc/4.8.3-2014q1/bin/../lib/gcc/arm-none-eabi/4.8.3/../../../../arm-none-eabi/lib/armv7-m\libm.a(lib_a-s_fpclassify.o)
 .bss           0x00000000        0x0 c:/users/softegg/appdata/local/arduino15/packages/arduino/tools/arm-none-eabi-gcc/4.8.3-2014q1/bin/../lib/gcc/arm-none-eabi/4.8.3/../../../../arm-none-eabi/lib/armv7-m\libm.a(lib_a-s_fpclassify.o)
 .text          0x00000000        0x0 c:/users/softegg/appdata/local/arduino15/packages/arduino/tools/arm-none-eabi-gcc/4.8.3-2014q1/bin/../lib/gcc/arm-none-eabi/4.8.3/../../../../arm-none-eabi/lib/armv7-m\libm.a(lib_a-s_lib_ver.o)
 .data          0x00000000        0x0 c:/users/softegg/appdata/local/arduino15/packages/arduino/tools/arm-none-eabi-gcc/4.8.3-2014q1/bin/../lib/gcc/arm-none-eabi/4.8.3/../../../../arm-none-eabi/lib/armv7-m\libm.a(lib_a-s_lib_ver.o)
 .bss           0x00000000        0x0 c:/users/softegg/appdata/local/arduino15/packages/arduino/tools/arm-none-eabi-gcc/4.8.3-2014q1/bin/../lib/gcc/arm-none-eabi/4.8.3/../../../../arm-none-eabi/lib/armv7-m\libm.a(lib_a-s_lib_ver.o)
 .text          0x00000000        0x0 c:/users/softegg/appdata/local/arduino15/packages/arduino/tools/arm-none-eabi-gcc/4.8.3-2014q1/bin/../lib/gcc/arm-none-eabi/4.8.3/../../../../arm-none-eabi/lib/armv7-m\libm.a(lib_a-s_matherr.o)
 .data          0x00000000        0x0 c:/users/softegg/appdata/local/arduino15/packages/arduino/tools/arm-none-eabi-gcc/4.8.3-2014q1/bin/../lib/gcc/arm-none-eabi/4.8.3/../../../../arm-none-eabi/lib/armv7-m\libm.a(lib_a-s_matherr.o)
 .bss           0x00000000        0x0 c:/users/softegg/appdata/local/arduino15/packages/arduino/tools/arm-none-eabi-gcc/4.8.3-2014q1/bin/../lib/gcc/arm-none-eabi/4.8.3/../../../../arm-none-eabi/lib/armv7-m\libm.a(lib_a-s_matherr.o)
 .text          0x00000000        0x0 c:/users/softegg/appdata/local/arduino15/packages/arduino/tools/arm-none-eabi-gcc/4.8.3-2014q1/bin/../lib/gcc/arm-none-eabi/4.8.3/../../../../arm-none-eabi/lib/armv7-m\libm.a(lib_a-s_nan.o)
 .data          0x00000000        0x0 c:/users/softegg/appdata/local/arduino15/packages/arduino/tools/arm-none-eabi-gcc/4.8.3-2014q1/bin/../lib/gcc/arm-none-eabi/4.8.3/../../../../arm-none-eabi/lib/armv7-m\libm.a(lib_a-s_nan.o)
 .bss           0x00000000        0x0 c:/users/softegg/appdata/local/arduino15/packages/arduino/tools/arm-none-eabi-gcc/4.8.3-2014q1/bin/../lib/gcc/arm-none-eabi/4.8.3/../../../../arm-none-eabi/lib/armv7-m\libm.a(lib_a-s_nan.o)
 .text          0x00000000        0x0 c:/users/softegg/appdata/local/arduino15/packages/arduino/tools/arm-none-eabi-gcc/4.8.3-2014q1/bin/../lib/gcc/arm-none-eabi/4.8.3/../../../../arm-none-eabi/lib/armv7-m\libm.a(lib_a-s_rint.o)
 .data          0x00000000        0x0 c:/users/softegg/appdata/local/arduino15/packages/arduino/tools/arm-none-eabi-gcc/4.8.3-2014q1/bin/../lib/gcc/arm-none-eabi/4.8.3/../../../../arm-none-eabi/lib/armv7-m\libm.a(lib_a-s_rint.o)
 .bss           0x00000000        0x0 c:/users/softegg/appdata/local/arduino15/packages/arduino/tools/arm-none-eabi-gcc/4.8.3-2014q1/bin/../lib/gcc/arm-none-eabi/4.8.3/../../../../arm-none-eabi/lib/armv7-m\libm.a(lib_a-s_rint.o)
 .text          0x00000000        0x0 c:/users/softegg/appdata/local/arduino15/packages/arduino/tools/arm-none-eabi-gcc/4.8.3-2014q1/bin/../lib/gcc/arm-none-eabi/4.8.3/../../../../arm-none-eabi/lib/armv7-m\libm.a(lib_a-s_scalbn.o)
 .data          0x00000000        0x0 c:/users/softegg/appdata/local/arduino15/packages/arduino/tools/arm-none-eabi-gcc/4.8.3-2014q1/bin/../lib/gcc/arm-none-eabi/4.8.3/../../../../arm-none-eabi/lib/armv7-m\libm.a(lib_a-s_scalbn.o)
 .bss           0x00000000        0x0 c:/users/softegg/appdata/local/arduino15/packages/arduino/tools/arm-none-eabi-gcc/4.8.3-2014q1/bin/../lib/gcc/arm-none-eabi/4.8.3/../../../../arm-none-eabi/lib/armv7-m\libm.a(lib_a-s_scalbn.o)
 .text          0x00000000        0x0 c:/users/softegg/appdata/local/arduino15/packages/arduino/tools/arm-none-eabi-gcc/4.8.3-2014q1/bin/../lib/gcc/arm-none-eabi/4.8.3/../../../../arm-none-eabi/lib/armv7-m\libm.a(lib_a-s_copysign.o)
 .data          0x00000000        0x0 c:/users/softegg/appdata/local/arduino15/packages/arduino/tools/arm-none-eabi-gcc/4.8.3-2014q1/bin/../lib/gcc/arm-none-eabi/4.8.3/../../../../arm-none-eabi/lib/armv7-m\libm.a(lib_a-s_copysign.o)
 .bss           0x00000000        0x0 c:/users/softegg/appdata/local/arduino15/packages/arduino/tools/arm-none-eabi-gcc/4.8.3-2014q1/bin/../lib/gcc/arm-none-eabi/4.8.3/../../../../arm-none-eabi/lib/armv7-m\libm.a(lib_a-s_copysign.o)
 .data          0x00000000        0x0 c:/users/softegg/appdata/local/arduino15/packages/arduino/tools/arm-none-eabi-gcc/4.8.3-2014q1/bin/../lib/gcc/arm-none-eabi/4.8.3/armv7-m\libgcc.a(_arm_addsubdf3.o)
 .bss           0x00000000        0x0 c:/users/softegg/appdata/local/arduino15/packages/arduino/tools/arm-none-eabi-gcc/4.8.3-2014q1/bin/../lib/gcc/arm-none-eabi/4.8.3/armv7-m\libgcc.a(_arm_addsubdf3.o)
 .data          0x00000000        0x0 c:/users/softegg/appdata/local/arduino15/packages/arduino/tools/arm-none-eabi-gcc/4.8.3-2014q1/bin/../lib/gcc/arm-none-eabi/4.8.3/armv7-m\libgcc.a(_arm_muldivdf3.o)
 .bss           0x00000000        0x0 c:/users/softegg/appdata/local/arduino15/packages/arduino/tools/arm-none-eabi-gcc/4.8.3-2014q1/bin/../lib/gcc/arm-none-eabi/4.8.3/armv7-m\libgcc.a(_arm_muldivdf3.o)
 .data          0x00000000        0x0 c:/users/softegg/appdata/local/arduino15/packages/arduino/tools/arm-none-eabi-gcc/4.8.3-2014q1/bin/../lib/gcc/arm-none-eabi/4.8.3/armv7-m\libgcc.a(_arm_cmpdf2.o)
 .bss           0x00000000        0x0 c:/users/softegg/appdata/local/arduino15/packages/arduino/tools/arm-none-eabi-gcc/4.8.3-2014q1/bin/../lib/gcc/arm-none-eabi/4.8.3/armv7-m\libgcc.a(_arm_cmpdf2.o)
 .text          0x00000000       0x50 c:/users/softegg/appdata/local/arduino15/packages/arduino/tools/arm-none-eabi-gcc/4.8.3-2014q1/bin/../lib/gcc/arm-none-eabi/4.8.3/armv7-m\libgcc.a(_arm_fixdfsi.o)
 .data          0x00000000        0x0 c:/users/softegg/appdata/local/arduino15/packages/arduino/tools/arm-none-eabi-gcc/4.8.3-2014q1/bin/../lib/gcc/arm-none-eabi/4.8.3/armv7-m\libgcc.a(_arm_fixdfsi.o)
 .bss           0x00000000        0x0 c:/users/softegg/appdata/local/arduino15/packages/arduino/tools/arm-none-eabi-gcc/4.8.3-2014q1/bin/../lib/gcc/arm-none-eabi/4.8.3/armv7-m\libgcc.a(_arm_fixdfsi.o)
 .data          0x00000000        0x0 c:/users/softegg/appdata/local/arduino15/packages/arduino/tools/arm-none-eabi-gcc/4.8.3-2014q1/bin/../lib/gcc/arm-none-eabi/4.8.3/armv7-m\libgcc.a(_arm_truncdfsf2.o)
 .bss           0x00000000        0x0 c:/users/softegg/appdata/local/arduino15/packages/arduino/tools/arm-none-eabi-gcc/4.8.3-2014q1/bin/../lib/gcc/arm-none-eabi/4.8.3/armv7-m\libgcc.a(_arm_truncdfsf2.o)
 .data          0x00000000        0x0 c:/users/softegg/appdata/local/arduino15/packages/arduino/tools/arm-none-eabi-gcc/4.8.3-2014q1/bin/../lib/gcc/arm-none-eabi/4.8.3/armv7-m\libgcc.a(_arm_addsubsf3.o)
 .bss           0x00000000        0x0 c:/users/softegg/appdata/local/arduino15/packages/arduino/tools/arm-none-eabi-gcc/4.8.3-2014q1/bin/../lib/gcc/arm-none-eabi/4.8.3/armv7-m\libgcc.a(_arm_addsubsf3.o)
 .data          0x00000000        0x0 c:/users/softegg/appdata/local/arduino15/packages/arduino/tools/arm-none-eabi-gcc/4.8.3-2014q1/bin/../lib/gcc/arm-none-eabi/4.8.3/armv7-m\libgcc.a(_arm_muldivsf3.o)
 .bss           0x00000000        0x0 c:/users/softegg/appdata/local/arduino15/packages/arduino/tools/arm-none-eabi-gcc/4.8.3-2014q1/bin/../lib/gcc/arm-none-eabi/4.8.3/armv7-m\libgcc.a(_arm_muldivsf3.o)
 .data          0x00000000        0x0 c:/users/softegg/appdata/local/arduino15/packages/arduino/tools/arm-none-eabi-gcc/4.8.3-2014q1/bin/../lib/gcc/arm-none-eabi/4.8.3/armv7-m\libgcc.a(_arm_cmpsf2.o)
 .bss           0x00000000        0x0 c:/users/softegg/appdata/local/arduino15/packages/arduino/tools/arm-none-eabi-gcc/4.8.3-2014q1/bin/../lib/gcc/arm-none-eabi/4.8.3/armv7-m\libgcc.a(_arm_cmpsf2.o)
 .data          0x00000000        0x0 c:/users/softegg/appdata/local/arduino15/packages/arduino/tools/arm-none-eabi-gcc/4.8.3-2014q1/bin/../lib/gcc/arm-none-eabi/4.8.3/armv7-m\libgcc.a(_arm_fixunssfsi.o)
 .bss           0x00000000        0x0 c:/users/softegg/appdata/local/arduino15/packages/arduino/tools/arm-none-eabi-gcc/4.8.3-2014q1/bin/../lib/gcc/arm-none-eabi/4.8.3/armv7-m\libgcc.a(_arm_fixunssfsi.o)
 .data          0x00000000        0x0 c:/users/softegg/appdata/local/arduino15/packages/arduino/tools/arm-none-eabi-gcc/4.8.3-2014q1/bin/../lib/gcc/arm-none-eabi/4.8.3/armv7-m\libgcc.a(_aeabi_uldivmod.o)
 .bss           0x00000000        0x0 c:/users/softegg/appdata/local/arduino15/packages/arduino/tools/arm-none-eabi-gcc/4.8.3-2014q1/bin/../lib/gcc/arm-none-eabi/4.8.3/armv7-m\libgcc.a(_aeabi_uldivmod.o)
 .text          0x00000000       0x30 c:/users/softegg/appdata/local/arduino15/packages/arduino/tools/arm-none-eabi-gcc/4.8.3-2014q1/bin/../lib/gcc/arm-none-eabi/4.8.3/armv7-m\libgcc.a(_fixdfdi.o)
 .data          0x00000000        0x0 c:/users/softegg/appdata/local/arduino15/packages/arduino/tools/arm-none-eabi-gcc/4.8.3-2014q1/bin/../lib/gcc/arm-none-eabi/4.8.3/armv7-m\libgcc.a(_fixdfdi.o)
 .bss           0x00000000        0x0 c:/users/softegg/appdata/local/arduino15/packages/arduino/tools/arm-none-eabi-gcc/4.8.3-2014q1/bin/../lib/gcc/arm-none-eabi/4.8.3/armv7-m\libgcc.a(_fixdfdi.o)
 .text          0x00000000       0x44 c:/users/softegg/appdata/local/arduino15/packages/arduino/tools/arm-none-eabi-gcc/4.8.3-2014q1/bin/../lib/gcc/arm-none-eabi/4.8.3/armv7-m\libgcc.a(_fixunsdfdi.o)
 .data          0x00000000        0x0 c:/users/softegg/appdata/local/arduino15/packages/arduino/tools/arm-none-eabi-gcc/4.8.3-2014q1/bin/../lib/gcc/arm-none-eabi/4.8.3/armv7-m\libgcc.a(_fixunsdfdi.o)
 .bss           0x00000000        0x0 c:/users/softegg/appdata/local/arduino15/packages/arduino/tools/arm-none-eabi-gcc/4.8.3-2014q1/bin/../lib/gcc/arm-none-eabi/4.8.3/armv7-m\libgcc.a(_fixunsdfdi.o)
 .data          0x00000000        0x0 c:/users/softegg/appdata/local/arduino15/packages/arduino/tools/arm-none-eabi-gcc/4.8.3-2014q1/bin/../lib/gcc/arm-none-eabi/4.8.3/armv7-m\libgcc.a(bpabi.o)
 .bss           0x00000000        0x0 c:/users/softegg/appdata/local/arduino15/packages/arduino/tools/arm-none-eabi-gcc/4.8.3-2014q1/bin/../lib/gcc/arm-none-eabi/4.8.3/armv7-m\libgcc.a(bpabi.o)
 .data          0x00000000        0x0 c:/users/softegg/appdata/local/arduino15/packages/arduino/tools/arm-none-eabi-gcc/4.8.3-2014q1/bin/../lib/gcc/arm-none-eabi/4.8.3/armv7-m\libgcc.a(_dvmd_tls.o)
 .bss           0x00000000        0x0 c:/users/softegg/appdata/local/arduino15/packages/arduino/tools/arm-none-eabi-gcc/4.8.3-2014q1/bin/../lib/gcc/arm-none-eabi/4.8.3/armv7-m\libgcc.a(_dvmd_tls.o)
 .text          0x00000000       0x40 c:/users/softegg/appdata/local/arduino15/packages/arduino/tools/arm-none-eabi-gcc/4.8.3-2014q1/bin/../lib/gcc/arm-none-eabi/4.8.3/armv7-m\libgcc.a(_arm_fixunsdfsi.o)
 .data          0x00000000        0x0 c:/users/softegg/appdata/local/arduino15/packages/arduino/tools/arm-none-eabi-gcc/4.8.3-2014q1/bin/../lib/gcc/arm-none-eabi/4.8.3/armv7-m\libgcc.a(_arm_fixunsdfsi.o)
 .bss           0x00000000        0x0 c:/users/softegg/appdata/local/arduino15/packages/arduino/tools/arm-none-eabi-gcc/4.8.3-2014q1/bin/../lib/gcc/arm-none-eabi/4.8.3/armv7-m\libgcc.a(_arm_fixunsdfsi.o)
 .data          0x00000000        0x0 c:/users/softegg/appdata/local/arduino15/packages/arduino/tools/arm-none-eabi-gcc/4.8.3-2014q1/bin/../lib/gcc/arm-none-eabi/4.8.3/armv7-m\libgcc.a(_divdi3.o)
 .bss           0x00000000        0x0 c:/users/softegg/appdata/local/arduino15/packages/arduino/tools/arm-none-eabi-gcc/4.8.3-2014q1/bin/../lib/gcc/arm-none-eabi/4.8.3/armv7-m\libgcc.a(_divdi3.o)
 .ARM.extab     0x00000000        0x0 c:/users/softegg/appdata/local/arduino15/packages/arduino/tools/arm-none-eabi-gcc/4.8.3-2014q1/bin/../lib/gcc/arm-none-eabi/4.8.3/armv7-m\libgcc.a(_divdi3.o)
 .data          0x00000000        0x0 c:/users/softegg/appdata/local/arduino15/packages/arduino/tools/arm-none-eabi-gcc/4.8.3-2014q1/bin/../lib/gcc/arm-none-eabi/4.8.3/armv7-m\libgcc.a(_udivdi3.o)
 .bss           0x00000000        0x0 c:/users/softegg/appdata/local/arduino15/packages/arduino/tools/arm-none-eabi-gcc/4.8.3-2014q1/bin/../lib/gcc/arm-none-eabi/4.8.3/armv7-m\libgcc.a(_udivdi3.o)
 .ARM.extab     0x00000000        0x0 c:/users/softegg/appdata/local/arduino15/packages/arduino/tools/arm-none-eabi-gcc/4.8.3-2014q1/bin/../lib/gcc/arm-none-eabi/4.8.3/armv7-m\libgcc.a(_udivdi3.o)
 .text          0x00000000        0x0 c:/users/softegg/appdata/local/arduino15/packages/arduino/tools/arm-none-eabi-gcc/4.8.3-2014q1/bin/../lib/gcc/arm-none-eabi/4.8.3/../../../../arm-none-eabi/lib/armv7-m\libc.a(lib_a-cxa_atexit.o)
 .data          0x00000000        0x0 c:/users/softegg/appdata/local/arduino15/packages/arduino/tools/arm-none-eabi-gcc/4.8.3-2014q1/bin/../lib/gcc/arm-none-eabi/4.8.3/../../../../arm-none-eabi/lib/armv7-m\libc.a(lib_a-cxa_atexit.o)
 .bss           0x00000000        0x0 c:/users/softegg/appdata/local/arduino15/packages/arduino/tools/arm-none-eabi-gcc/4.8.3-2014q1/bin/../lib/gcc/arm-none-eabi/4.8.3/../../../../arm-none-eabi/lib/armv7-m\libc.a(lib_a-cxa_atexit.o)
 .text          0x00000000        0x0 c:/users/softegg/appdata/local/arduino15/packages/arduino/tools/arm-none-eabi-gcc/4.8.3-2014q1/bin/../lib/gcc/arm-none-eabi/4.8.3/../../../../arm-none-eabi/lib/armv7-m\libc.a(lib_a-errno.o)
 .data          0x00000000        0x0 c:/users/softegg/appdata/local/arduino15/packages/arduino/tools/arm-none-eabi-gcc/4.8.3-2014q1/bin/../lib/gcc/arm-none-eabi/4.8.3/../../../../arm-none-eabi/lib/armv7-m\libc.a(lib_a-errno.o)
 .bss           0x00000000        0x0 c:/users/softegg/appdata/local/arduino15/packages/arduino/tools/arm-none-eabi-gcc/4.8.3-2014q1/bin/../lib/gcc/arm-none-eabi/4.8.3/../../../../arm-none-eabi/lib/armv7-m\libc.a(lib_a-errno.o)
 .text          0x00000000        0x0 c:/users/softegg/appdata/local/arduino15/packages/arduino/tools/arm-none-eabi-gcc/4.8.3-2014q1/bin/../lib/gcc/arm-none-eabi/4.8.3/../../../../arm-none-eabi/lib/armv7-m\libc.a(lib_a-exit.o)
 .data          0x00000000        0x0 c:/users/softegg/appdata/local/arduino15/packages/arduino/tools/arm-none-eabi-gcc/4.8.3-2014q1/bin/../lib/gcc/arm-none-eabi/4.8.3/../../../../arm-none-eabi/lib/armv7-m\libc.a(lib_a-exit.o)
 .bss           0x00000000        0x0 c:/users/softegg/appdata/local/arduino15/packages/arduino/tools/arm-none-eabi-gcc/4.8.3-2014q1/bin/../lib/gcc/arm-none-eabi/4.8.3/../../../../arm-none-eabi/lib/armv7-m\libc.a(lib_a-exit.o)
 .text          0x00000000        0x0 c:/users/softegg/appdata/local/arduino15/packages/arduino/tools/arm-none-eabi-gcc/4.8.3-2014q1/bin/../lib/gcc/arm-none-eabi/4.8.3/../../../../arm-none-eabi/lib/armv7-m\libc.a(lib_a-impure.o)
 .data          0x00000000        0x0 c:/users/softegg/appdata/local/arduino15/packages/arduino/tools/arm-none-eabi-gcc/4.8.3-2014q1/bin/../lib/gcc/arm-none-eabi/4.8.3/../../../../arm-none-eabi/lib/armv7-m\libc.a(lib_a-impure.o)
 .bss           0x00000000        0x0 c:/users/softegg/appdata/local/arduino15/packages/arduino/tools/arm-none-eabi-gcc/4.8.3-2014q1/bin/../lib/gcc/arm-none-eabi/4.8.3/../../../../arm-none-eabi/lib/armv7-m\libc.a(lib_a-impure.o)
 .text          0x00000000        0x0 c:/users/softegg/appdata/local/arduino15/packages/arduino/tools/arm-none-eabi-gcc/4.8.3-2014q1/bin/../lib/gcc/arm-none-eabi/4.8.3/../../../../arm-none-eabi/lib/armv7-m\libc.a(lib_a-init.o)
 .data          0x00000000        0x0 c:/users/softegg/appdata/local/arduino15/packages/arduino/tools/arm-none-eabi-gcc/4.8.3-2014q1/bin/../lib/gcc/arm-none-eabi/4.8.3/../../../../arm-none-eabi/lib/armv7-m\libc.a(lib_a-init.o)
 .bss           0x00000000        0x0 c:/users/softegg/appdata/local/arduino15/packages/arduino/tools/arm-none-eabi-gcc/4.8.3-2014q1/bin/../lib/gcc/arm-none-eabi/4.8.3/../../../../arm-none-eabi/lib/armv7-m\libc.a(lib_a-init.o)
 .text          0x00000000        0x0 c:/users/softegg/appdata/local/arduino15/packages/arduino/tools/arm-none-eabi-gcc/4.8.3-2014q1/bin/../lib/gcc/arm-none-eabi/4.8.3/../../../../arm-none-eabi/lib/armv7-m\libc.a(lib_a-malloc.o)
 .data          0x00000000        0x0 c:/users/softegg/appdata/local/arduino15/packages/arduino/tools/arm-none-eabi-gcc/4.8.3-2014q1/bin/../lib/gcc/arm-none-eabi/4.8.3/../../../../arm-none-eabi/lib/armv7-m\libc.a(lib_a-malloc.o)
 .bss           0x00000000        0x0 c:/users/softegg/appdata/local/arduino15/packages/arduino/tools/arm-none-eabi-gcc/4.8.3-2014q1/bin/../lib/gcc/arm-none-eabi/4.8.3/../../../../arm-none-eabi/lib/armv7-m\libc.a(lib_a-malloc.o)
 .text          0x00000000        0x0 c:/users/softegg/appdata/local/arduino15/packages/arduino/tools/arm-none-eabi-gcc/4.8.3-2014q1/bin/../lib/gcc/arm-none-eabi/4.8.3/../../../../arm-none-eabi/lib/armv7-m\libc.a(lib_a-mallocr.o)
 .data          0x00000000        0x0 c:/users/softegg/appdata/local/arduino15/packages/arduino/tools/arm-none-eabi-gcc/4.8.3-2014q1/bin/../lib/gcc/arm-none-eabi/4.8.3/../../../../arm-none-eabi/lib/armv7-m\libc.a(lib_a-mallocr.o)
 .bss           0x00000000        0x0 c:/users/softegg/appdata/local/arduino15/packages/arduino/tools/arm-none-eabi-gcc/4.8.3-2014q1/bin/../lib/gcc/arm-none-eabi/4.8.3/../../../../arm-none-eabi/lib/armv7-m\libc.a(lib_a-mallocr.o)
 .data          0x00000000        0x0 c:/users/softegg/appdata/local/arduino15/packages/arduino/tools/arm-none-eabi-gcc/4.8.3-2014q1/bin/../lib/gcc/arm-none-eabi/4.8.3/../../../../arm-none-eabi/lib/armv7-m\libc.a(lib_a-memcpy.o)
 .bss           0x00000000        0x0 c:/users/softegg/appdata/local/arduino15/packages/arduino/tools/arm-none-eabi-gcc/4.8.3-2014q1/bin/../lib/gcc/arm-none-eabi/4.8.3/../../../../arm-none-eabi/lib/armv7-m\libc.a(lib_a-memcpy.o)
 .text          0x00000000        0x0 c:/users/softegg/appdata/local/arduino15/packages/arduino/tools/arm-none-eabi-gcc/4.8.3-2014q1/bin/../lib/gcc/arm-none-eabi/4.8.3/../../../../arm-none-eabi/lib/armv7-m\libc.a(lib_a-memset.o)
 .data          0x00000000        0x0 c:/users/softegg/appdata/local/arduino15/packages/arduino/tools/arm-none-eabi-gcc/4.8.3-2014q1/bin/../lib/gcc/arm-none-eabi/4.8.3/../../../../arm-none-eabi/lib/armv7-m\libc.a(lib_a-memset.o)
 .bss           0x00000000        0x0 c:/users/softegg/appdata/local/arduino15/packages/arduino/tools/arm-none-eabi-gcc/4.8.3-2014q1/bin/../lib/gcc/arm-none-eabi/4.8.3/../../../../arm-none-eabi/lib/armv7-m\libc.a(lib_a-memset.o)
 .text.memset   0x00000000       0x94 c:/users/softegg/appdata/local/arduino15/packages/arduino/tools/arm-none-eabi-gcc/4.8.3-2014q1/bin/../lib/gcc/arm-none-eabi/4.8.3/../../../../arm-none-eabi/lib/armv7-m\libc.a(lib_a-memset.o)
 .text          0x00000000        0x0 c:/users/softegg/appdata/local/arduino15/packages/arduino/tools/arm-none-eabi-gcc/4.8.3-2014q1/bin/../lib/gcc/arm-none-eabi/4.8.3/../../../../arm-none-eabi/lib/armv7-m\libc.a(lib_a-mlock.o)
 .data          0x00000000        0x0 c:/users/softegg/appdata/local/arduino15/packages/arduino/tools/arm-none-eabi-gcc/4.8.3-2014q1/bin/../lib/gcc/arm-none-eabi/4.8.3/../../../../arm-none-eabi/lib/armv7-m\libc.a(lib_a-mlock.o)
 .bss           0x00000000        0x0 c:/users/softegg/appdata/local/arduino15/packages/arduino/tools/arm-none-eabi-gcc/4.8.3-2014q1/bin/../lib/gcc/arm-none-eabi/4.8.3/../../../../arm-none-eabi/lib/armv7-m\libc.a(lib_a-mlock.o)
 .text          0x00000000        0x0 c:/users/softegg/appdata/local/arduino15/packages/arduino/tools/arm-none-eabi-gcc/4.8.3-2014q1/bin/../lib/gcc/arm-none-eabi/4.8.3/../../../../arm-none-eabi/lib/armv7-m\libc.a(lib_a-sbrkr.o)
 .data          0x00000000        0x0 c:/users/softegg/appdata/local/arduino15/packages/arduino/tools/arm-none-eabi-gcc/4.8.3-2014q1/bin/../lib/gcc/arm-none-eabi/4.8.3/../../../../arm-none-eabi/lib/armv7-m\libc.a(lib_a-sbrkr.o)
 .bss           0x00000000        0x0 c:/users/softegg/appdata/local/arduino15/packages/arduino/tools/arm-none-eabi-gcc/4.8.3-2014q1/bin/../lib/gcc/arm-none-eabi/4.8.3/../../../../arm-none-eabi/lib/armv7-m\libc.a(lib_a-sbrkr.o)
 .text          0x00000000        0x0 c:/users/softegg/appdata/local/arduino15/packages/arduino/tools/arm-none-eabi-gcc/4.8.3-2014q1/bin/../lib/gcc/arm-none-eabi/4.8.3/../../../../arm-none-eabi/lib/armv7-m\libc.a(lib_a-strlen.o)
 .data          0x00000000        0x0 c:/users/softegg/appdata/local/arduino15/packages/arduino/tools/arm-none-eabi-gcc/4.8.3-2014q1/bin/../lib/gcc/arm-none-eabi/4.8.3/../../../../arm-none-eabi/lib/armv7-m\libc.a(lib_a-strlen.o)
 .bss           0x00000000        0x0 c:/users/softegg/appdata/local/arduino15/packages/arduino/tools/arm-none-eabi-gcc/4.8.3-2014q1/bin/../lib/gcc/arm-none-eabi/4.8.3/../../../../arm-none-eabi/lib/armv7-m\libc.a(lib_a-strlen.o)
 .text          0x00000000        0x0 c:/users/softegg/appdata/local/arduino15/packages/arduino/tools/arm-none-eabi-gcc/4.8.3-2014q1/bin/../lib/gcc/arm-none-eabi/4.8.3/../../../../arm-none-eabi/lib/armv7-m\libc.a(lib_a-__atexit.o)
 .data          0x00000000        0x0 c:/users/softegg/appdata/local/arduino15/packages/arduino/tools/arm-none-eabi-gcc/4.8.3-2014q1/bin/../lib/gcc/arm-none-eabi/4.8.3/../../../../arm-none-eabi/lib/armv7-m\libc.a(lib_a-__atexit.o)
 .bss           0x00000000        0x0 c:/users/softegg/appdata/local/arduino15/packages/arduino/tools/arm-none-eabi-gcc/4.8.3-2014q1/bin/../lib/gcc/arm-none-eabi/4.8.3/../../../../arm-none-eabi/lib/armv7-m\libc.a(lib_a-__atexit.o)
 .text          0x00000000        0x0 c:/users/softegg/appdata/local/arduino15/packages/arduino/tools/arm-none-eabi-gcc/4.8.3-2014q1/bin/../lib/gcc/arm-none-eabi/4.8.3/../../../../arm-none-eabi/lib/armv7-m\libc.a(lib_a-__call_atexit.o)
 .data          0x00000000        0x0 c:/users/softegg/appdata/local/arduino15/packages/arduino/tools/arm-none-eabi-gcc/4.8.3-2014q1/bin/../lib/gcc/arm-none-eabi/4.8.3/../../../../arm-none-eabi/lib/armv7-m\libc.a(lib_a-__call_atexit.o)
 .bss           0x00000000        0x0 c:/users/softegg/appdata/local/arduino15/packages/arduino/tools/arm-none-eabi-gcc/4.8.3-2014q1/bin/../lib/gcc/arm-none-eabi/4.8.3/../../../../arm-none-eabi/lib/armv7-m\libc.a(lib_a-__call_atexit.o)
 .text          0x00000000        0x0 c:/users/softegg/appdata/local/arduino15/packages/arduino/tools/arm-none-eabi-gcc/4.8.3-2014q1/bin/../lib/gcc/arm-none-eabi/4.8.3/../../../../arm-none-eabi/lib/armv7-m\libc.a(lib_a-atexit.o)
 .data          0x00000000        0x0 c:/users/softegg/appdata/local/arduino15/packages/arduino/tools/arm-none-eabi-gcc/4.8.3-2014q1/bin/../lib/gcc/arm-none-eabi/4.8.3/../../../../arm-none-eabi/lib/armv7-m\libc.a(lib_a-atexit.o)
 .bss           0x00000000        0x0 c:/users/softegg/appdata/local/arduino15/packages/arduino/tools/arm-none-eabi-gcc/4.8.3-2014q1/bin/../lib/gcc/arm-none-eabi/4.8.3/../../../../arm-none-eabi/lib/armv7-m\libc.a(lib_a-atexit.o)
 .text          0x00000000        0x0 c:/users/softegg/appdata/local/arduino15/packages/arduino/tools/arm-none-eabi-gcc/4.8.3-2014q1/bin/../lib/gcc/arm-none-eabi/4.8.3/../../../../arm-none-eabi/lib/armv7-m\libc.a(lib_a-fini.o)
 .data          0x00000000        0x0 c:/users/softegg/appdata/local/arduino15/packages/arduino/tools/arm-none-eabi-gcc/4.8.3-2014q1/bin/../lib/gcc/arm-none-eabi/4.8.3/../../../../arm-none-eabi/lib/armv7-m\libc.a(lib_a-fini.o)
 .bss           0x00000000        0x0 c:/users/softegg/appdata/local/arduino15/packages/arduino/tools/arm-none-eabi-gcc/4.8.3-2014q1/bin/../lib/gcc/arm-none-eabi/4.8.3/../../../../arm-none-eabi/lib/armv7-m\libc.a(lib_a-fini.o)
 .text          0x00000000        0x0 c:/users/softegg/appdata/local/arduino15/packages/arduino/tools/arm-none-eabi-gcc/4.8.3-2014q1/bin/../lib/gcc/arm-none-eabi/4.8.3/../../../../arm-none-eabi/lib/armv7-m\libc.a(lib_a-freer.o)
 .data          0x00000000        0x0 c:/users/softegg/appdata/local/arduino15/packages/arduino/tools/arm-none-eabi-gcc/4.8.3-2014q1/bin/../lib/gcc/arm-none-eabi/4.8.3/../../../../arm-none-eabi/lib/armv7-m\libc.a(lib_a-freer.o)
 .bss           0x00000000        0x0 c:/users/softegg/appdata/local/arduino15/packages/arduino/tools/arm-none-eabi-gcc/4.8.3-2014q1/bin/../lib/gcc/arm-none-eabi/4.8.3/../../../../arm-none-eabi/lib/armv7-m\libc.a(lib_a-freer.o)
 .text          0x00000000        0x0 c:/users/softegg/appdata/local/arduino15/packages/arduino/tools/arm-none-eabi-gcc/4.8.3-2014q1/bin/../lib/gcc/arm-none-eabi/4.8.3/../../../../arm-none-eabi/lib/armv7-m\libc.a(lib_a-reent.o)
 .data          0x00000000        0x0 c:/users/softegg/appdata/local/arduino15/packages/arduino/tools/arm-none-eabi-gcc/4.8.3-2014q1/bin/../lib/gcc/arm-none-eabi/4.8.3/../../../../arm-none-eabi/lib/armv7-m\libc.a(lib_a-reent.o)
 .bss           0x00000000        0x0 c:/users/softegg/appdata/local/arduino15/packages/arduino/tools/arm-none-eabi-gcc/4.8.3-2014q1/bin/../lib/gcc/arm-none-eabi/4.8.3/../../../../arm-none-eabi/lib/armv7-m\libc.a(lib_a-reent.o)
 .text.cleanup_glue
                0x00000000       0x1c c:/users/softegg/appdata/local/arduino15/packages/arduino/tools/arm-none-eabi-gcc/4.8.3-2014q1/bin/../lib/gcc/arm-none-eabi/4.8.3/../../../../arm-none-eabi/lib/armv7-m\libc.a(lib_a-reent.o)
 .text._reclaim_reent
                0x00000000       0x90 c:/users/softegg/appdata/local/arduino15/packages/arduino/tools/arm-none-eabi-gcc/4.8.3-2014q1/bin/../lib/gcc/arm-none-eabi/4.8.3/../../../../arm-none-eabi/lib/armv7-m\libc.a(lib_a-reent.o)
 .text          0x00000000        0x0 c:/users/softegg/appdata/local/arduino15/packages/arduino/tools/arm-none-eabi-gcc/4.8.3-2014q1/bin/../lib/gcc/arm-none-eabi/4.8.3/armv7-m/crtend.o
 .data          0x00000000        0x0 c:/users/softegg/appdata/local/arduino15/packages/arduino/tools/arm-none-eabi-gcc/4.8.3-2014q1/bin/../lib/gcc/arm-none-eabi/4.8.3/armv7-m/crtend.o
 .bss           0x00000000        0x0 c:/users/softegg/appdata/local/arduino15/packages/arduino/tools/arm-none-eabi-gcc/4.8.3-2014q1/bin/../lib/gcc/arm-none-eabi/4.8.3/armv7-m/crtend.o
 .eh_frame      0x00000000        0x4 c:/users/softegg/appdata/local/arduino15/packages/arduino/tools/arm-none-eabi-gcc/4.8.3-2014q1/bin/../lib/gcc/arm-none-eabi/4.8.3/armv7-m/crtend.o
 .jcr           0x00000000        0x4 c:/users/softegg/appdata/local/arduino15/packages/arduino/tools/arm-none-eabi-gcc/4.8.3-2014q1/bin/../lib/gcc/arm-none-eabi/4.8.3/armv7-m/crtend.o
 .text          0x00000000        0x0 c:/users/softegg/appdata/local/arduino15/packages/arduino/tools/arm-none-eabi-gcc/4.8.3-2014q1/bin/../lib/gcc/arm-none-eabi/4.8.3/armv7-m/crtn.o
 .data          0x00000000        0x0 c:/users/softegg/appdata/local/arduino15/packages/arduino/tools/arm-none-eabi-gcc/4.8.3-2014q1/bin/../lib/gcc/arm-none-eabi/4.8.3/armv7-m/crtn.o
 .bss           0x00000000        0x0 c:/users/softegg/appdata/local/arduino15/packages/arduino/tools/arm-none-eabi-gcc/4.8.3-2014q1/bin/../lib/gcc/arm-none-eabi/4.8.3/armv7-m/crtn.o

Memory Configuration

Name             Origin             Length             Attributes
ram              0x20000000         0x00005000         xrw
rom              0x08000000         0x00020000         xr
*default*        0x00000000         0xffffffff

Linker script and memory map

LOAD c:/users/softegg/appdata/local/arduino15/packages/arduino/tools/arm-none-eabi-gcc/4.8.3-2014q1/bin/../lib/gcc/arm-none-eabi/4.8.3/armv7-m/crti.o
LOAD c:/users/softegg/appdata/local/arduino15/packages/arduino/tools/arm-none-eabi-gcc/4.8.3-2014q1/bin/../lib/gcc/arm-none-eabi/4.8.3/armv7-m/crtbegin.o
LOAD c:/users/softegg/appdata/local/arduino15/packages/arduino/tools/arm-none-eabi-gcc/4.8.3-2014q1/bin/../lib/gcc/arm-none-eabi/4.8.3/../../../../arm-none-eabi/lib/armv7-m/crt0.o
LOAD c:/users/softegg/appdata/local/arduino15/packages/arduino/tools/arm-none-eabi-gcc/4.8.3-2014q1/bin/../lib/gcc/arm-none-eabi/4.8.3/armv7-m\libgcc.a
START GROUP
LOAD D:\projects\arduino\buildtemp\sketch\Stylish.pde.cpp.o
LOAD D:\projects\arduino\buildtemp\sketch\flashwriter.cpp.o
LOAD D:\projects\arduino\buildtemp\sketch\rgb.cpp.o
LOAD D:\projects\arduino\buildtemp\libraries\WS2812B\WS2812B.cpp.o
LOAD D:\projects\arduino\buildtemp\libraries\Mozzi-master\MozziGuts.cpp.o
LOAD D:\projects\arduino\buildtemp\libraries\Mozzi-master\mozzi_analog.cpp.o
LOAD D:\projects\arduino\buildtemp\libraries\Mozzi-master\mozzi_fixmath.cpp.o
LOAD D:\projects\arduino\buildtemp\libraries\Mozzi-master\mozzi_midi.cpp.o
LOAD D:\projects\arduino\buildtemp\libraries\Mozzi-master\mozzi_rand.cpp.o
LOAD D:\projects\arduino\buildtemp\libraries\Mozzi-master\mozzi_utils.cpp.o
LOAD D:\projects\arduino\buildtemp\libraries\Mozzi-master\twi_nonblock.cpp.o
LOAD D:\projects\arduino\buildtemp\libraries\Mozzi-master\utility\FrequencyTimer2.cpp.o
LOAD D:\projects\arduino\buildtemp\libraries\Mozzi-master\utility\TimerOne.cpp.o
LOAD D:\projects\arduino\buildtemp\libraries\Mozzi-master\utility\TimerZero.cpp.o
LOAD D:\projects\arduino\buildtemp\libraries\SPI\SPI.cpp.o
LOAD D:\projects\arduino\buildtemp\libraries\STM32ADC\STM32ADC.cpp.o
LOAD D:\projects\arduino\buildtemp\libraries\STM32ADC\utility\util_adc.c.o
LOAD D:\projects\arduino\buildtemp\core\board.cpp.o
LOAD D:\projects\arduino\buildtemp\core\wirish\boards.cpp.o
LOAD D:\projects\arduino\buildtemp\core\wirish\boards_setup.cpp.o
LOAD D:\projects\arduino\buildtemp\core\wirish\start.S.o
LOAD D:\projects\arduino\buildtemp\core\wirish\start_c.c.o
LOAD D:\projects\arduino\buildtemp\core\wirish\syscalls.c.o
LOAD D:\projects\arduino\buildtemp\core\core.a
END GROUP
LOAD c:/users/softegg/appdata/local/arduino15/packages/arduino/tools/arm-none-eabi-gcc/4.8.3-2014q1/bin/../lib/gcc/arm-none-eabi/4.8.3/../../../../arm-none-eabi/lib/armv7-m\libstdc++.a
LOAD c:/users/softegg/appdata/local/arduino15/packages/arduino/tools/arm-none-eabi-gcc/4.8.3-2014q1/bin/../lib/gcc/arm-none-eabi/4.8.3/../../../../arm-none-eabi/lib/armv7-m\libm.a
START GROUP
LOAD c:/users/softegg/appdata/local/arduino15/packages/arduino/tools/arm-none-eabi-gcc/4.8.3-2014q1/bin/../lib/gcc/arm-none-eabi/4.8.3/armv7-m\libgcc.a
LOAD c:/users/softegg/appdata/local/arduino15/packages/arduino/tools/arm-none-eabi-gcc/4.8.3-2014q1/bin/../lib/gcc/arm-none-eabi/4.8.3/../../../../arm-none-eabi/lib/armv7-m\libc.a
END GROUP
LOAD c:/users/softegg/appdata/local/arduino15/packages/arduino/tools/arm-none-eabi-gcc/4.8.3-2014q1/bin/../lib/gcc/arm-none-eabi/4.8.3/armv7-m/crtend.o
LOAD c:/users/softegg/appdata/local/arduino15/packages/arduino/tools/arm-none-eabi-gcc/4.8.3-2014q1/bin/../lib/gcc/arm-none-eabi/4.8.3/armv7-m/crtn.o
START GROUP
LOAD c:/users/softegg/appdata/local/arduino15/packages/arduino/tools/arm-none-eabi-gcc/4.8.3-2014q1/bin/../lib/gcc/arm-none-eabi/4.8.3/armv7-m\libgcc.a
LOAD c:/users/softegg/appdata/local/arduino15/packages/arduino/tools/arm-none-eabi-gcc/4.8.3-2014q1/bin/../lib/gcc/arm-none-eabi/4.8.3/../../../../arm-none-eabi/lib/armv7-m\libc.a
LOAD c:/users/softegg/appdata/local/arduino15/packages/arduino/tools/arm-none-eabi-gcc/4.8.3-2014q1/bin/../lib/gcc/arm-none-eabi/4.8.3/../../../../arm-none-eabi/lib/armv7-m\libm.a
END GROUP
START GROUP
LOAD c:/users/softegg/appdata/local/arduino15/packages/arduino/tools/arm-none-eabi-gcc/4.8.3-2014q1/bin/../lib/gcc/arm-none-eabi/4.8.3/../../../../arm-none-eabi/lib/armv7-m\libnosys.a
END GROUP
                0x20005000                PROVIDE (__msp_init, (ORIGIN (ram) + 0x5000))
                0x0800278c                PROVIDE (__exc_reset, __start__)

.text           0x08000000     0x8828
                0x08000000                __text_start__ = .
 *(.stm32.interrupt_vector)
 .stm32.interrupt_vector
                0x08000000       0xec D:\projects\arduino\buildtemp\core\core.a(vector_table.S.o)
                0x08000000                __stm32_vector_table
 *(.text .text.* .gnu.linkonce.t.*)
 .text          0x080000ec       0x54 c:/users/softegg/appdata/local/arduino15/packages/arduino/tools/arm-none-eabi-gcc/4.8.3-2014q1/bin/../lib/gcc/arm-none-eabi/4.8.3/armv7-m/crtbegin.o
 .text._ZN7patch_t4EchoEv
                0x08000140       0x44 D:\projects\arduino\buildtemp\sketch\Stylish.pde.cpp.o
                0x08000140                patch_t::Echo()
 .text._ZN7patch_t13GetAllToLocalEv
                0x08000184       0x5c D:\projects\arduino\buildtemp\sketch\Stylish.pde.cpp.o
                0x08000184                patch_t::GetAllToLocal()
 .text._ZN7patch_t15SetAllFromLocalEv
                0x080001e0       0x74 D:\projects\arduino\buildtemp\sketch\Stylish.pde.cpp.o
                0x080001e0                patch_t::SetAllFromLocal()
 .text._Z15SetFlashAddressv
                0x08000254       0x30 D:\projects\arduino\buildtemp\sketch\Stylish.pde.cpp.o
                0x08000254                SetFlashAddress()
 .text._Z19WritePatchesToFlashv
                0x08000284       0x78 D:\projects\arduino\buildtemp\sketch\Stylish.pde.cpp.o
                0x08000284                WritePatchesToFlash()
 .text._Z20ReadPatchesFromFlashv
                0x080002fc       0xb0 D:\projects\arduino\buildtemp\sketch\Stylish.pde.cpp.o
                0x080002fc                ReadPatchesFromFlash()
 .text._Z5Noisev
                0x080003ac       0x20 D:\projects\arduino\buildtemp\sketch\Stylish.pde.cpp.o
                0x080003ac                Noise()
 .text._Z12MapValToBytehhh
                0x080003cc       0x64 D:\projects\arduino\buildtemp\sketch\Stylish.pde.cpp.o
                0x080003cc                MapValToByte(unsigned char, unsigned char, unsigned char)
 .text._Z17SetLocalPatchDatahh
                0x08000430      0x4a4 D:\projects\arduino\buildtemp\sketch\Stylish.pde.cpp.o
                0x08000430                SetLocalPatchData(unsigned char, unsigned char)
 .text._Z23UpdateAllLocalPatchDatav
                0x080008d4       0x1c D:\projects\arduino\buildtemp\sketch\Stylish.pde.cpp.o
                0x080008d4                UpdateAllLocalPatchData()
 .text._Z12Set_UI_State10eUI_States
                0x080008f0       0x24 D:\projects\arduino\buildtemp\sketch\Stylish.pde.cpp.o
                0x080008f0                Set_UI_State(eUI_States)
 .text._Z12Get_UI_Stateb
                0x08000914       0x2c D:\projects\arduino\buildtemp\sketch\Stylish.pde.cpp.o
                0x08000914                Get_UI_State(bool)
 .text._Z15Set_UI_SubState13eUI_SubStates
                0x08000940       0x24 D:\projects\arduino\buildtemp\sketch\Stylish.pde.cpp.o
                0x08000940                Set_UI_SubState(eUI_SubStates)
 .text._Z15Get_UI_SubStateb
                0x08000964       0x2c D:\projects\arduino\buildtemp\sketch\Stylish.pde.cpp.o
                0x08000964                Get_UI_SubState(bool)
 .text._Z19StylusKeyboardSetupv
                0x08000990       0x3c D:\projects\arduino\buildtemp\sketch\Stylish.pde.cpp.o
                0x08000990                StylusKeyboardSetup()
 .text._Z20StylusKeyboardUpdatev
                0x080009cc       0xc4 D:\projects\arduino\buildtemp\sketch\Stylish.pde.cpp.o
                0x080009cc                StylusKeyboardUpdate()
 .text._Z10GetUIValuev
                0x08000a90       0xb8 D:\projects\arduino\buildtemp\sketch\Stylish.pde.cpp.o
                0x08000a90                GetUIValue()
 .text._Z10SetUIValueh
                0x08000b48      0x134 D:\projects\arduino\buildtemp\sketch\Stylish.pde.cpp.o
                0x08000b48                SetUIValue(unsigned char)
 .text._Z11SaveUIValuev
                0x08000c7c       0x44 D:\projects\arduino\buildtemp\sketch\Stylish.pde.cpp.o
                0x08000c7c                SaveUIValue()
 .text._Z14RestoreUIValuev
                0x08000cc0       0x3c D:\projects\arduino\buildtemp\sketch\Stylish.pde.cpp.o
                0x08000cc0                RestoreUIValue()
 .text._Z15FinalizeUIValuev
                0x08000cfc      0x124 D:\projects\arduino\buildtemp\sketch\Stylish.pde.cpp.o
                0x08000cfc                FinalizeUIValue()
 .text._Z19NextStateFirstStagev
                0x08000e20       0x42 D:\projects\arduino\buildtemp\sketch\Stylish.pde.cpp.o
                0x08000e20                NextStateFirstStage()
 .text._Z24NextStateDoneSelectingUpv
                0x08000e62       0x36 D:\projects\arduino\buildtemp\sketch\Stylish.pde.cpp.o
                0x08000e62                NextStateDoneSelectingUp()
 .text._Z13SubStateKeyUph
                0x08000e98       0x68 D:\projects\arduino\buildtemp\sketch\Stylish.pde.cpp.o
                0x08000e98                SubStateKeyUp(unsigned char)
 .text._Z12ReceiveKeyUph
                0x08000f00       0x38 D:\projects\arduino\buildtemp\sketch\Stylish.pde.cpp.o
                0x08000f00                ReceiveKeyUp(unsigned char)
 .text._Z5setupv
                0x08000f38       0x9c D:\projects\arduino\buildtemp\sketch\Stylish.pde.cpp.o
                0x08000f38                setup()
 .text._Z7Rainbowhh
                0x08000fd4       0x86 D:\projects\arduino\buildtemp\sketch\Stylish.pde.cpp.o
                0x08000fd4                Rainbow(unsigned char, unsigned char)
 *fill*         0x0800105a        0x2 
 .text._Z16AnimPixelsSpreadt
                0x0800105c       0x3c D:\projects\arduino\buildtemp\sketch\Stylish.pde.cpp.o
                0x0800105c                AnimPixelsSpread(unsigned short)
 .text._Z17AnimPixelAddRangehhRK5rgb_t
                0x08001098       0x2c D:\projects\arduino\buildtemp\sketch\Stylish.pde.cpp.o
                0x08001098                AnimPixelAddRange(unsigned char, unsigned char, rgb_t const&)
 .text._Z17AnimPixelAddValuehhRK5rgb_tS1_
                0x080010c4       0x44 D:\projects\arduino\buildtemp\sketch\Stylish.pde.cpp.o
                0x080010c4                AnimPixelAddValue(unsigned char, unsigned char, rgb_t const&, rgb_t const&)
 .text._Z12AnimSetStripv
                0x08001108       0x70 D:\projects\arduino\buildtemp\sketch\Stylish.pde.cpp.o
                0x08001108                AnimSetStrip()
 .text._Z10AnimUpdatev
                0x08001178      0x198 D:\projects\arduino\buildtemp\sketch\Stylish.pde.cpp.o
                0x08001178                AnimUpdate()
 .text._ZN5OscilILt2048ELt16384EE4nextEv
                0x08001310       0x12 D:\projects\arduino\buildtemp\sketch\Stylish.pde.cpp.o
                0x08001310                Oscil<(unsigned short)2048, (unsigned short)16384>::next()
 *fill*         0x08001322        0x2 
 .text._Z11updateAudiov
                0x08001324       0x5c D:\projects\arduino\buildtemp\sketch\Stylish.pde.cpp.o
                0x08001324                updateAudio()
 .text._ZN4ADSRILj256ELj256EE8setPhaseEPNS0_5phaseE
                0x08001380       0x24 D:\projects\arduino\buildtemp\sketch\Stylish.pde.cpp.o
                0x08001380                ADSR<256u, 256u>::setPhase(ADSR<256u, 256u>::phase*)
 .text._Z12SoundKeyDownh
                0x080013a4      0x140 D:\projects\arduino\buildtemp\sketch\Stylish.pde.cpp.o
                0x080013a4                SoundKeyDown(unsigned char)
 .text._Z15SubStateKeyDownh
                0x080014e4       0x88 D:\projects\arduino\buildtemp\sketch\Stylish.pde.cpp.o
                0x080014e4                SubStateKeyDown(unsigned char)
 .text._Z14ReceiveKeyDownh
                0x0800156c       0xec D:\projects\arduino\buildtemp\sketch\Stylish.pde.cpp.o
                0x0800156c                ReceiveKeyDown(unsigned char)
 .text._Z10SoundKeyUpv
                0x08001658       0x14 D:\projects\arduino\buildtemp\sketch\Stylish.pde.cpp.o
                0x08001658                SoundKeyUp()
 .text._Z4loopv
                0x0800166c       0xc8 D:\projects\arduino\buildtemp\sketch\Stylish.pde.cpp.o
                0x0800166c                loop()
 .text._ZN4ADSRILj256ELj256EE23checkForAndSetNextPhaseEPNS0_5phaseE
                0x08001734       0x14 D:\projects\arduino\buildtemp\sketch\Stylish.pde.cpp.o
                0x08001734                ADSR<256u, 256u>::checkForAndSetNextPhase(ADSR<256u, 256u>::phase*)
 .text._Z13updateControlv
                0x08001748      0x284 D:\projects\arduino\buildtemp\sketch\Stylish.pde.cpp.o
                0x08001748                updateControl()
 .text.startup._GLOBAL__sub_I_strip
                0x080019cc      0x124 D:\projects\arduino\buildtemp\sketch\Stylish.pde.cpp.o
 .text._Z10setupFLASHv
                0x08001af0       0x1c D:\projects\arduino\buildtemp\sketch\flashwriter.cpp.o
                0x08001af0                setupFLASH()
 .text._Z14flashErasePagem
                0x08001b0c       0x34 D:\projects\arduino\buildtemp\sketch\flashwriter.cpp.o
                0x08001b0c                flashErasePage(unsigned long)
 .text._Z14flashWriteWordmm
                0x08001b40       0x4c D:\projects\arduino\buildtemp\sketch\flashwriter.cpp.o
                0x08001b40                flashWriteWord(unsigned long, unsigned long)
 .text._Z9flashLockv
                0x08001b8c        0xc D:\projects\arduino\buildtemp\sketch\flashwriter.cpp.o
                0x08001b8c                flashLock()
 .text._Z11flashUnlockv
                0x08001b98       0x18 D:\projects\arduino\buildtemp\sketch\flashwriter.cpp.o
                0x08001b98                flashUnlock()
 .text._Z11getFlashEndv
                0x08001bb0       0x10 D:\projects\arduino\buildtemp\sketch\flashwriter.cpp.o
                0x08001bb0                getFlashEnd()
 .text._Z16getFlashPageSizev
                0x08001bc0       0x20 D:\projects\arduino\buildtemp\sketch\flashwriter.cpp.o
                0x08001bc0                getFlashPageSize()
 .text._ZN5rgb_tpLERKS_
                0x08001be0       0x2e D:\projects\arduino\buildtemp\sketch\rgb.cpp.o
                0x08001be0                rgb_t::operator+=(rgb_t const&)
 .text._ZN5rgb_tmLERKt
                0x08001c0e       0x34 D:\projects\arduino\buildtemp\sketch\rgb.cpp.o
                0x08001c0e                rgb_t::operator*=(unsigned short const&)
 .text._ZN5rgb_tC2Ehhh
                0x08001c42        0xa D:\projects\arduino\buildtemp\sketch\rgb.cpp.o
                0x08001c42                rgb_t::rgb_t(unsigned char, unsigned char, unsigned char)
                0x08001c42                rgb_t::rgb_t(unsigned char, unsigned char, unsigned char)
 .text._ZN7WS2812BD2Ev
                0x08001c4c       0x1c D:\projects\arduino\buildtemp\libraries\WS2812B\WS2812B.cpp.o
                0x08001c4c                WS2812B::~WS2812B()
                0x08001c4c                WS2812B::~WS2812B()
 .text._ZN7WS2812B5beginEv
                0x08001c68       0x20 D:\projects\arduino\buildtemp\libraries\WS2812B\WS2812B.cpp.o
                0x08001c68                WS2812B::begin()
 .text._ZN7WS2812B4showEv
                0x08001c88       0x30 D:\projects\arduino\buildtemp\libraries\WS2812B\WS2812B.cpp.o
                0x08001c88                WS2812B::show()
 .text._ZN7WS2812B13setPixelColorEthhh
                0x08001cb8       0x50 D:\projects\arduino\buildtemp\libraries\WS2812B\WS2812B.cpp.o
                0x08001cb8                WS2812B::setPixelColor(unsigned short, unsigned char, unsigned char, unsigned char)
 .text._ZNK7WS2812B9numPixelsEv
                0x08001d08        0x4 D:\projects\arduino\buildtemp\libraries\WS2812B\WS2812B.cpp.o
                0x08001d08                WS2812B::numPixels() const
 .text._ZN7WS2812B13setBrightnessEh
                0x08001d0c       0x4e D:\projects\arduino\buildtemp\libraries\WS2812B\WS2812B.cpp.o
                0x08001d0c                WS2812B::setBrightness(unsigned char)
 *fill*         0x08001d5a        0x2 
 .text._ZN7WS2812B5clearEv
                0x08001d5c       0x34 D:\projects\arduino\buildtemp\libraries\WS2812B\WS2812B.cpp.o
                0x08001d5c                WS2812B::clear()
 .text._ZN7WS2812B12updateLengthEt
                0x08001d90       0x42 D:\projects\arduino\buildtemp\libraries\WS2812B\WS2812B.cpp.o
                0x08001d90                WS2812B::updateLength(unsigned short)
 .text._ZN7WS2812BC2Et
                0x08001dd2       0x12 D:\projects\arduino\buildtemp\libraries\WS2812B\WS2812B.cpp.o
                0x08001dd2                WS2812B::WS2812B(unsigned short)
                0x08001dd2                WS2812B::WS2812B(unsigned short)
 .text._ZL14pwmAudioOutputv
                0x08001de4       0x38 D:\projects\arduino\buildtemp\libraries\Mozzi-master\MozziGuts.cpp.o
 .text._Z9audioHookv
                0x08001e1c       0x70 D:\projects\arduino\buildtemp\libraries\Mozzi-master\MozziGuts.cpp.o
                0x08001e1c                audioHook()
 .text._Z10startMozzii
                0x08001e8c       0x8c D:\projects\arduino\buildtemp\libraries\Mozzi-master\MozziGuts.cpp.o
                0x08001e8c                startMozzi(int)
 .text.startup._GLOBAL__sub_I_adc
                0x08001f18       0x48 D:\projects\arduino\buildtemp\libraries\Mozzi-master\MozziGuts.cpp.o
 .text._Z19setupFastAnalogReada
                0x08001f60       0x1c D:\projects\arduino\buildtemp\libraries\Mozzi-master\mozzi_analog.cpp.o
                0x08001f60                setupFastAnalogRead(signed char)
 .text._Z13setupMozziADCa
                0x08001f7c       0x28 D:\projects\arduino\buildtemp\libraries\Mozzi-master\mozzi_analog.cpp.o
                0x08001f7c                setupMozziADC(signed char)
 .text._Z18adcStartConversionh
                0x08001fa4       0x24 D:\projects\arduino\buildtemp\libraries\Mozzi-master\mozzi_analog.cpp.o
                0x08001fa4                adcStartConversion(unsigned char)
 .text._Z23adcReadSelectedChannelsv
                0x08001fc8       0x44 D:\projects\arduino\buildtemp\libraries\Mozzi-master\mozzi_analog.cpp.o
                0x08001fc8                adcReadSelectedChannels()
 .text._Z17adcStartReadCyclev
                0x0800200c       0x20 D:\projects\arduino\buildtemp\libraries\Mozzi-master\mozzi_analog.cpp.o
                0x0800200c                adcStartReadCycle()
 .text._Z21startSecondControlADCv
                0x0800202c       0x20 D:\projects\arduino\buildtemp\libraries\Mozzi-master\mozzi_analog.cpp.o
                0x0800202c                startSecondControlADC()
 .text._Z23receiveSecondControlADCv
                0x0800204c       0x24 D:\projects\arduino\buildtemp\libraries\Mozzi-master\mozzi_analog.cpp.o
                0x0800204c                receiveSecondControlADC()
 .text._Z21stm32_adc_eoc_handlerv
                0x08002070       0x24 D:\projects\arduino\buildtemp\libraries\Mozzi-master\mozzi_analog.cpp.o
                0x08002070                stm32_adc_eoc_handler()
 .text.startup._GLOBAL__sub_I__Z19setupFastAnalogReada
                0x08002094       0x10 D:\projects\arduino\buildtemp\libraries\Mozzi-master\mozzi_analog.cpp.o
 *fill*         0x080020a4        0x4 
 .text._Z4mtoff
                0x080020a8       0x50 D:\projects\arduino\buildtemp\libraries\Mozzi-master\mozzi_midi.cpp.o
                0x080020a8                mtof(float)
 .text._Z10xorshift96v
                0x080020f8       0x34 D:\projects\arduino\buildtemp\libraries\Mozzi-master\mozzi_rand.cpp.o
                0x080020f8                xorshift96()
 .text._Z4randi
                0x0800212c       0x10 D:\projects\arduino\buildtemp\libraries\Mozzi-master\mozzi_rand.cpp.o
                0x0800212c                rand(int)
 .text._ZL11disable_pwmPK14stm32_pin_info
                0x0800213c       0x10 D:\projects\arduino\buildtemp\libraries\SPI\SPI.cpp.o
 .text._ZL15dev_to_spi_pinsP7spi_dev.isra.8
                0x0800214c       0x1c D:\projects\arduino\buildtemp\libraries\SPI\SPI.cpp.o
 .text._ZL15configure_gpiosP7spi_devb
                0x08002168       0x84 D:\projects\arduino\buildtemp\libraries\SPI\SPI.cpp.o
 .text._ZL19determine_baud_rateP7spi_devm.isra.9
                0x080021ec       0x3c D:\projects\arduino\buildtemp\libraries\SPI\SPI.cpp.o
 .text._ZN8SPIClassC2Em
                0x08002228       0xa8 D:\projects\arduino\buildtemp\libraries\SPI\SPI.cpp.o
                0x08002228                SPIClass::SPIClass(unsigned long)
                0x08002228                SPIClass::SPIClass(unsigned long)
 .text._ZN8SPIClass14updateSettingsEv
                0x080022d0       0x24 D:\projects\arduino\buildtemp\libraries\SPI\SPI.cpp.o
                0x080022d0                SPIClass::updateSettings()
 .text._ZN8SPIClass5beginEv
                0x080022f4       0x24 D:\projects\arduino\buildtemp\libraries\SPI\SPI.cpp.o
                0x080022f4                SPIClass::begin()
 .text._ZN8SPIClass3endEv
                0x08002318       0x40 D:\projects\arduino\buildtemp\libraries\SPI\SPI.cpp.o
                0x08002318                SPIClass::end()
 .text._ZN8SPIClass15setClockDividerEm
                0x08002358       0x18 D:\projects\arduino\buildtemp\libraries\SPI\SPI.cpp.o
                0x08002358                SPIClass::setClockDivider(unsigned long)
 .text._ZN8SPIClass12dmaSendAsyncEPKvtb
                0x08002370       0xdc D:\projects\arduino\buildtemp\libraries\SPI\SPI.cpp.o
                0x08002370                SPIClass::dmaSendAsync(void const*, unsigned short, bool)
 .text.startup._GLOBAL__sub_I__ZN8SPIClassC2Em
                0x0800244c        0xc D:\projects\arduino\buildtemp\libraries\SPI\SPI.cpp.o
 .text._ZN8STM32ADCC2EP7adc_dev
                0x08002458        0x4 D:\projects\arduino\buildtemp\libraries\STM32ADC\STM32ADC.cpp.o
                0x08002458                STM32ADC::STM32ADC(adc_dev*)
                0x08002458                STM32ADC::STM32ADC(adc_dev*)
 .text._ZN8STM32ADC7getDataEv
                0x0800245c        0x8 D:\projects\arduino\buildtemp\libraries\STM32ADC\STM32ADC.cpp.o
                0x0800245c                STM32ADC::getData()
 .text._ZN8STM32ADC13setSampleRateE12adc_smp_rate
                0x08002464        0x6 D:\projects\arduino\buildtemp\libraries\STM32ADC\STM32ADC.cpp.o
                0x08002464                STM32ADC::setSampleRate(adc_smp_rate)
 .text._ZN8STM32ADC15attachInterruptEPFvvEh
                0x0800246a        0xc D:\projects\arduino\buildtemp\libraries\STM32ADC\STM32ADC.cpp.o
                0x0800246a                STM32ADC::attachInterrupt(void (*)(), unsigned char)
 *fill*         0x08002476        0x2 
 .text._ZN8STM32ADC7setPinsEPhh
                0x08002478       0xb0 D:\projects\arduino\buildtemp\libraries\STM32ADC\STM32ADC.cpp.o
                0x08002478                STM32ADC::setPins(unsigned char*, unsigned char)
 .text._ZN8STM32ADC15startConversionEv
                0x08002528        0xe D:\projects\arduino\buildtemp\libraries\STM32ADC\STM32ADC.cpp.o
                0x08002528                STM32ADC::startConversion()
 .text._ZN8STM32ADC9calibrateEv
                0x08002536        0x6 D:\projects\arduino\buildtemp\libraries\STM32ADC\STM32ADC.cpp.o
                0x08002536                STM32ADC::calibrate()
 .text._Z9boardInitv
                0x0800253c        0x2 D:\projects\arduino\buildtemp\core\board.cpp.o
                0x0800253c                boardInit()
 *fill*         0x0800253e        0x2 
 .text.startup._GLOBAL__sub_I__Z9boardInitv
                0x08002540       0x48 D:\projects\arduino\buildtemp\core\board.cpp.o
 .text._ZL18adc_default_configP7adc_dev
                0x08002588       0x1c D:\projects\arduino\buildtemp\core\wirish\boards.cpp.o
 .text._ZL20timer_default_configP9timer_dev
                0x080025a4       0x9e D:\projects\arduino\buildtemp\core\wirish\boards.cpp.o
 *fill*         0x08002642        0x2 
 .text._Z4initv
                0x08002644       0xbc D:\projects\arduino\buildtemp\core\wirish\boards.cpp.o
                0x08002644                init()
 .text._ZN6wirish4priv15board_reset_pllEv
                0x08002700        0x2 D:\projects\arduino\buildtemp\core\wirish\boards_setup.cpp.o
                0x08002700                wirish::priv::board_reset_pll()
 .text._ZN6wirish4priv28board_setup_clock_prescalersEv
                0x08002702       0x2e D:\projects\arduino\buildtemp\core\wirish\boards_setup.cpp.o
                0x08002702                wirish::priv::board_setup_clock_prescalers()
 .text._ZN6wirish4priv16board_setup_gpioEv
                0x08002730        0x4 D:\projects\arduino\buildtemp\core\wirish\boards_setup.cpp.o
                0x08002730                wirish::priv::board_setup_gpio()
 .text._ZN6wirish4priv15board_setup_usbEv
                0x08002734       0x54 D:\projects\arduino\buildtemp\core\wirish\boards_setup.cpp.o
                0x08002734                wirish::priv::board_setup_usb()
 .text._ZN6wirish4priv11series_initEv
                0x08002788        0x4 D:\projects\arduino\buildtemp\core\wirish\boards_setup.cpp.o
                0x08002788                wirish::priv::series_init()
 .text          0x0800278c       0x10 D:\projects\arduino\buildtemp\core\wirish\start.S.o
                0x0800278c                __start__
 .text.start_c  0x0800279c       0x64 D:\projects\arduino\buildtemp\core\wirish\start_c.c.o
                0x0800279c                start_c
 .text._sbrk    0x08002800       0x44 D:\projects\arduino\buildtemp\core\wirish\syscalls.c.o
                0x08002800                _sbrk
 .text._exit    0x08002844        0x2 D:\projects\arduino\buildtemp\core\wirish\syscalls.c.o
                0x08002844                _exit
 .text.rb_full_count
                0x08002846       0x22 D:\projects\arduino\buildtemp\core\core.a(HardwareSerial.cpp.o)
 .text._ZN14HardwareSerial4readEv
                0x08002868       0x3a D:\projects\arduino\buildtemp\core\core.a(HardwareSerial.cpp.o)
                0x08002868                HardwareSerial::read()
 .text._ZN14HardwareSerial9availableEv
                0x080028a2        0xc D:\projects\arduino\buildtemp\core\core.a(HardwareSerial.cpp.o)
                0x080028a2                HardwareSerial::available()
 .text._ZN14HardwareSerial4peekEv
                0x080028ae       0x22 D:\projects\arduino\buildtemp\core\core.a(HardwareSerial.cpp.o)
                0x080028ae                HardwareSerial::peek()
 .text._ZN14HardwareSerial5flushEv
                0x080028d0       0x1a D:\projects\arduino\buildtemp\core\core.a(HardwareSerial.cpp.o)
                0x080028d0                HardwareSerial::flush()
 .text._ZN14HardwareSerial5writeEh
                0x080028ea       0x1e D:\projects\arduino\buildtemp\core\core.a(HardwareSerial.cpp.o)
                0x080028ea                HardwareSerial::write(unsigned char)
 .text._ZN14HardwareSerialC2EP9usart_devhh
                0x08002908       0x1c D:\projects\arduino\buildtemp\core\core.a(HardwareSerial.cpp.o)
                0x08002908                HardwareSerial::HardwareSerial(usart_dev*, unsigned char, unsigned char)
                0x08002908                HardwareSerial::HardwareSerial(usart_dev*, unsigned char, unsigned char)
 .text.set_this_dev
                0x08002924       0x1c D:\projects\arduino\buildtemp\core\core.a(HardwareTimer.cpp.o)
 .text._ZN13HardwareTimerC2Eh
                0x08002940       0x2c D:\projects\arduino\buildtemp\core\core.a(HardwareTimer.cpp.o)
                0x08002940                HardwareTimer::HardwareTimer(unsigned char)
                0x08002940                HardwareTimer::HardwareTimer(unsigned char)
 .text._ZN13HardwareTimer5pauseEv
                0x0800296c       0x10 D:\projects\arduino\buildtemp\core\core.a(HardwareTimer.cpp.o)
                0x0800296c                HardwareTimer::pause()
 .text._ZN13HardwareTimer6resumeEv
                0x0800297c       0x10 D:\projects\arduino\buildtemp\core\core.a(HardwareTimer.cpp.o)
                0x0800297c                HardwareTimer::resume()
 .text._ZN13HardwareTimer17setPrescaleFactorEm
                0x0800298c        0xc D:\projects\arduino\buildtemp\core\core.a(HardwareTimer.cpp.o)
                0x0800298c                HardwareTimer::setPrescaleFactor(unsigned long)
 .text._ZN13HardwareTimer11setOverflowEt
                0x08002998        0x8 D:\projects\arduino\buildtemp\core\core.a(HardwareTimer.cpp.o)
                0x08002998                HardwareTimer::setOverflow(unsigned short)
 .text._ZN13HardwareTimer9setPeriodEm
                0x080029a0       0x3e D:\projects\arduino\buildtemp\core\core.a(HardwareTimer.cpp.o)
                0x080029a0                HardwareTimer::setPeriod(unsigned long)
 .text._ZN13HardwareTimer7setModeEi10timer_mode
                0x080029de        0x8 D:\projects\arduino\buildtemp\core\core.a(HardwareTimer.cpp.o)
                0x080029de                HardwareTimer::setMode(int, timer_mode)
 .text._ZN13HardwareTimer10setCompareEit
                0x080029e6       0x1e D:\projects\arduino\buildtemp\core\core.a(HardwareTimer.cpp.o)
                0x080029e6                HardwareTimer::setCompare(int, unsigned short)
 .text._ZN13HardwareTimer15attachInterruptEiPFvvE
                0x08002a04        0x8 D:\projects\arduino\buildtemp\core\core.a(HardwareTimer.cpp.o)
                0x08002a04                HardwareTimer::attachInterrupt(int, void (*)())
 .text._ZN13HardwareTimer7refreshEv
                0x08002a0c       0x12 D:\projects\arduino\buildtemp\core\core.a(HardwareTimer.cpp.o)
                0x08002a0c                HardwareTimer::refresh()
 *fill*         0x08002a1e        0x2 
 .text.startup._GLOBAL__sub_I__ZN13HardwareTimerC2Eh
                0x08002a20       0x38 D:\projects\arduino\buildtemp\core\core.a(HardwareTimer.cpp.o)
 .text._ZN5Print5writeEPKvm
                0x08002a58       0x20 D:\projects\arduino\buildtemp\core\core.a(Print.cpp.o)
                0x08002a58                Print::write(void const*, unsigned long)
 .text._ZN5Print5writeEPKc
                0x08002a78       0x1e D:\projects\arduino\buildtemp\core\core.a(Print.cpp.o)
                0x08002a78                Print::write(char const*)
 .text._ZN5Print5printEc
                0x08002a96        0xa D:\projects\arduino\buildtemp\core\core.a(Print.cpp.o)
                0x08002a96                Print::print(char)
 .text._ZN5Print5printEPKc
                0x08002aa0        0xa D:\projects\arduino\buildtemp\core\core.a(Print.cpp.o)
                0x08002aa0                Print::print(char const*)
 .text._ZN5Print7printlnEv
                0x08002aaa       0x18 D:\projects\arduino\buildtemp\core\core.a(Print.cpp.o)
                0x08002aaa                Print::println()
 .text._ZN5Print7printlnEPKc
                0x08002ac2       0x14 D:\projects\arduino\buildtemp\core\core.a(Print.cpp.o)
                0x08002ac2                Print::println(char const*)
 .text._ZN5Print11printNumberEyh
                0x08002ad6       0x84 D:\projects\arduino\buildtemp\core\core.a(Print.cpp.o)
                0x08002ad6                Print::printNumber(unsigned long long, unsigned char)
 .text._ZN5Print5printExi
                0x08002b5a       0x32 D:\projects\arduino\buildtemp\core\core.a(Print.cpp.o)
                0x08002b5a                Print::print(long long, int)
 .text._ZN5Print5printEii
                0x08002b8c       0x12 D:\projects\arduino\buildtemp\core\core.a(Print.cpp.o)
                0x08002b8c                Print::print(int, int)
 .text._ZN5Print7printlnEii
                0x08002b9e       0x14 D:\projects\arduino\buildtemp\core\core.a(Print.cpp.o)
                0x08002b9e                Print::println(int, int)
 .text._ZN5Print5printEyi
                0x08002bb2        0xa D:\projects\arduino\buildtemp\core\core.a(Print.cpp.o)
                0x08002bb2                Print::print(unsigned long long, int)
 .text._ZN5Print5printEhi
                0x08002bbc       0x14 D:\projects\arduino\buildtemp\core\core.a(Print.cpp.o)
                0x08002bbc                Print::print(unsigned char, int)
 .text._ZN5Print7printlnEmi
                0x08002bd0       0x1e D:\projects\arduino\buildtemp\core\core.a(Print.cpp.o)
                0x08002bd0                Print::println(unsigned long, int)
 .text._ZN5Print10printDigitEhb
                0x08002bee       0x22 D:\projects\arduino\buildtemp\core\core.a(Print.cpp.o)
                0x08002bee                Print::printDigit(unsigned char, bool)
 .text._ZN5Print6printfEPKcz
                0x08002c10      0x318 D:\projects\arduino\buildtemp\core\core.a(Print.cpp.o)
                0x08002c10                Print::printf(char const*, ...)
 .text.adc_init
                0x08002f28       0x14 D:\projects\arduino\buildtemp\core\core.a(adc.c.o)
                0x08002f28                adc_init
 .text.adc_set_extsel
                0x08002f3c       0x12 D:\projects\arduino\buildtemp\core\core.a(adc.c.o)
                0x08002f3c                adc_set_extsel
 .text.adc_set_sample_rate
                0x08002f4e       0x30 D:\projects\arduino\buildtemp\core\core.a(adc.c.o)
                0x08002f4e                adc_set_sample_rate
 *fill*         0x08002f7e        0x2 
 .text.__irq_adc
                0x08002f80       0x50 D:\projects\arduino\buildtemp\core\core.a(adc_f1.c.o)
                0x08002f80                __irq_adc
 .text.adc_enable_irq
                0x08002fd0       0x30 D:\projects\arduino\buildtemp\core\core.a(adc_f1.c.o)
                0x08002fd0                adc_enable_irq
 .text.adc_attach_interrupt
                0x08003000        0xa D:\projects\arduino\buildtemp\core\core.a(adc_f1.c.o)
                0x08003000                adc_attach_interrupt
 .text.adc_calibrate
                0x0800300a       0x24 D:\projects\arduino\buildtemp\core\core.a(adc_f1.c.o)
                0x0800300a                adc_calibrate
 .text.adc_set_prescaler
                0x0800302e        0x8 D:\projects\arduino\buildtemp\core\core.a(adc_f1.c.o)
                0x0800302e                adc_set_prescaler
 *fill*         0x08003036        0x2 
 .text.adc_foreach
                0x08003038       0x1c D:\projects\arduino\buildtemp\core\core.a(adc_f1.c.o)
                0x08003038                adc_foreach
 .text.adc_enable_single_swstart
                0x08003054       0x36 D:\projects\arduino\buildtemp\core\core.a(adc_f1.c.o)
                0x08003054                adc_enable_single_swstart
 .text.dma_init
                0x0800308a        0x6 D:\projects\arduino\buildtemp\core\core.a(dma.c.o)
                0x0800308a                dma_init
 .text.dma_set_num_transfers
                0x08003090       0x10 D:\projects\arduino\buildtemp\core\core.a(dma_f1.c.o)
                0x08003090                dma_set_num_transfers
 .text.dma_enable
                0x080030a0       0x18 D:\projects\arduino\buildtemp\core\core.a(dma_f1.c.o)
                0x080030a0                dma_enable
 .text.dma_disable
                0x080030b8       0x18 D:\projects\arduino\buildtemp\core\core.a(dma_f1.c.o)
                0x080030b8                dma_disable
 .text.dma_setup_transfer
                0x080030d0       0x36 D:\projects\arduino\buildtemp\core\core.a(dma_f1.c.o)
                0x080030d0                dma_setup_transfer
 *fill*         0x08003106        0x2 
 .text.__irq_dma1_channel1
                0x08003108       0x18 D:\projects\arduino\buildtemp\core\core.a(dma_f1.c.o)
                0x08003108                __irq_dma1_channel1
 .text.__irq_dma1_channel2
                0x08003120       0x18 D:\projects\arduino\buildtemp\core\core.a(dma_f1.c.o)
                0x08003120                __irq_dma1_channel2
 .text.__irq_dma1_channel3
                0x08003138       0x1c D:\projects\arduino\buildtemp\core\core.a(dma_f1.c.o)
                0x08003138                __irq_dma1_channel3
 .text.__irq_dma1_channel4
                0x08003154       0x1c D:\projects\arduino\buildtemp\core\core.a(dma_f1.c.o)
                0x08003154                __irq_dma1_channel4
 .text.__irq_dma1_channel5
                0x08003170       0x1c D:\projects\arduino\buildtemp\core\core.a(dma_f1.c.o)
                0x08003170                __irq_dma1_channel5
 .text.__irq_dma1_channel6
                0x0800318c       0x1c D:\projects\arduino\buildtemp\core\core.a(dma_f1.c.o)
                0x0800318c                __irq_dma1_channel6
 .text.__irq_dma1_channel7
                0x080031a8       0x1c D:\projects\arduino\buildtemp\core\core.a(dma_f1.c.o)
                0x080031a8                __irq_dma1_channel7
 *fill*         0x080031c4        0xc 
 .text          0x080031d0       0x60 D:\projects\arduino\buildtemp\core\core.a(exc.S.o)
                0x080031d0                __exc_nmi
                0x080031d4                __exc_hardfault
                0x080031d8                __exc_memmanage
                0x080031dc                __exc_busfault
                0x080031e0                __exc_usagefault
 .text.__irq_exti0
                0x08003230       0x20 D:\projects\arduino\buildtemp\core\core.a(exti.c.o)
                0x08003230                __irq_exti0
 .text.__irq_exti1
                0x08003250       0x20 D:\projects\arduino\buildtemp\core\core.a(exti.c.o)
                0x08003250                __irq_exti1
 .text.__irq_exti2
                0x08003270       0x20 D:\projects\arduino\buildtemp\core\core.a(exti.c.o)
                0x08003270                __irq_exti2
 .text.__irq_exti3
                0x08003290       0x20 D:\projects\arduino\buildtemp\core\core.a(exti.c.o)
                0x08003290                __irq_exti3
 .text.__irq_exti4
                0x080032b0       0x20 D:\projects\arduino\buildtemp\core\core.a(exti.c.o)
                0x080032b0                __irq_exti4
 .text.__irq_exti9_5
                0x080032d0       0x44 D:\projects\arduino\buildtemp\core\core.a(exti.c.o)
                0x080032d0                __irq_exti9_5
 .text.__irq_exti15_10
                0x08003314       0x44 D:\projects\arduino\buildtemp\core\core.a(exti.c.o)
                0x08003314                __irq_exti15_10
 .text.flash_set_latency
                0x08003358       0x14 D:\projects\arduino\buildtemp\core\core.a(flash.c.o)
                0x08003358                flash_set_latency
 .text.gpio_init_all
                0x0800336c       0x30 D:\projects\arduino\buildtemp\core\core.a(gpio_f1.c.o)
                0x0800336c                gpio_init_all
 .text.gpio_set_mode
                0x0800339c       0x50 D:\projects\arduino\buildtemp\core\core.a(gpio_f1.c.o)
                0x0800339c                gpio_set_mode
 .text.afio_init
                0x080033ec       0x12 D:\projects\arduino\buildtemp\core\core.a(gpio_f1.c.o)
                0x080033ec                afio_init
 *fill*         0x080033fe        0x2 
 .text.__irq_i2c1_ev
                0x08003400        0xc D:\projects\arduino\buildtemp\core\core.a(i2c_f1.c.o)
                0x08003400                __irq_i2c1_ev
 .text.__irq_i2c2_ev
                0x0800340c        0xc D:\projects\arduino\buildtemp\core\core.a(i2c_f1.c.o)
                0x0800340c                __irq_i2c2_ev
 .text.__irq_i2c1_er
                0x08003418        0xc D:\projects\arduino\buildtemp\core\core.a(i2c_f1.c.o)
                0x08003418                __irq_i2c1_er
 .text.__irq_i2c2_er
                0x08003424        0xc D:\projects\arduino\buildtemp\core\core.a(i2c_f1.c.o)
                0x08003424                __irq_i2c2_er
 .text._i2c_irq_priority_fixup
                0x08003430       0x1c D:\projects\arduino\buildtemp\core\core.a(i2c_f1.c.o)
                0x08003430                _i2c_irq_priority_fixup
 .text.nvic_irq_set_priority
                0x0800344c       0x28 D:\projects\arduino\buildtemp\core\core.a(nvic.c.o)
                0x0800344c                nvic_irq_set_priority
 .text.nvic_init
                0x08003474       0x30 D:\projects\arduino\buildtemp\core\core.a(nvic.c.o)
                0x08003474                nvic_init
 .text.nvic_sys_reset
                0x080034a4       0x1c D:\projects\arduino\buildtemp\core\core.a(nvic.c.o)
                0x080034a4                nvic_sys_reset
 .text.rcc_dev_clk
                0x080034c0        0xc D:\projects\arduino\buildtemp\core\core.a(rcc.c.o)
                0x080034c0                rcc_dev_clk
 .text.rcc_switch_sysclk
                0x080034cc       0x20 D:\projects\arduino\buildtemp\core\core.a(rcc.c.o)
                0x080034cc                rcc_switch_sysclk
 .text.rcc_turn_on_clk
                0x080034ec       0x1a D:\projects\arduino\buildtemp\core\core.a(rcc.c.o)
                0x080034ec                rcc_turn_on_clk
 .text.rcc_turn_off_clk
                0x08003506       0x1c D:\projects\arduino\buildtemp\core\core.a(rcc.c.o)
                0x08003506                rcc_turn_off_clk
 .text.rcc_is_clk_ready
                0x08003522       0x18 D:\projects\arduino\buildtemp\core\core.a(rcc.c.o)
                0x08003522                rcc_is_clk_ready
 *fill*         0x0800353a        0x2 
 .text.rcc_configure_pll
                0x0800353c       0x18 D:\projects\arduino\buildtemp\core\core.a(rcc_f1.c.o)
                0x0800353c                rcc_configure_pll
 .text.rcc_clk_enable
                0x08003554       0x30 D:\projects\arduino\buildtemp\core\core.a(rcc_f1.c.o)
                0x08003554                rcc_clk_enable
 .text.rcc_reset_dev
                0x08003584       0x34 D:\projects\arduino\buildtemp\core\core.a(rcc_f1.c.o)
                0x08003584                rcc_reset_dev
 .text.rcc_set_prescaler
                0x080035b8       0x20 D:\projects\arduino\buildtemp\core\core.a(rcc_f1.c.o)
                0x080035b8                rcc_set_prescaler
 .text.rcc_clk_disable
                0x080035d8       0x30 D:\projects\arduino\buildtemp\core\core.a(rcc_f1.c.o)
                0x080035d8                rcc_clk_disable
 .text.bb_peri_set_bit
                0x08003608        0xe D:\projects\arduino\buildtemp\core\core.a(spi.c.o)
 .text.spi_init
                0x08003616       0x14 D:\projects\arduino\buildtemp\core\core.a(spi.c.o)
                0x08003616                spi_init
 .text.spi_peripheral_enable
                0x0800362a        0xa D:\projects\arduino\buildtemp\core\core.a(spi.c.o)
                0x0800362a                spi_peripheral_enable
 .text.spi_peripheral_disable
                0x08003634        0xa D:\projects\arduino\buildtemp\core\core.a(spi.c.o)
                0x08003634                spi_peripheral_disable
 .text.spi_reconfigure
                0x0800363e       0x2c D:\projects\arduino\buildtemp\core\core.a(spi.c.o)
 .text.spi_master_enable
                0x0800366a        0xc D:\projects\arduino\buildtemp\core\core.a(spi.c.o)
                0x0800366a                spi_master_enable
 .text.spi_tx_dma_enable
                0x08003676        0xc D:\projects\arduino\buildtemp\core\core.a(spi.c.o)
                0x08003676                spi_tx_dma_enable
 .text.spi_tx_dma_disable
                0x08003682        0xc D:\projects\arduino\buildtemp\core\core.a(spi.c.o)
                0x08003682                spi_tx_dma_disable
 .text.spi_config_gpios
                0x0800368e       0x5a D:\projects\arduino\buildtemp\core\core.a(spi_f1.c.o)
                0x0800368e                spi_config_gpios
 .text          0x080036e8        0x2 D:\projects\arduino\buildtemp\core\core.a(isrs.S.o)
                0x080036e8                __stm32reservedexception9
                0x080036e8                __exc_debug_monitor
                0x080036e8                __exc_svc
                0x080036e8                __irq_can_rx1
                0x080036e8                __irq_spi2
                0x080036e8                __irq_can_sce
                0x080036e8                __irq_pvd
                0x080036e8                __irq_tamper
                0x080036e8                __default_handler
                0x080036e8                __irq_wwdg
                0x080036e8                __stm32reservedexception10
                0x080036e8                __irq_flash
                0x080036e8                __stm32reservedexception13
                0x080036e8                __irq_rtc
                0x080036e8                __irq_spi1
                0x080036e8                __stm32reservedexception7
                0x080036e8                __irq_usb_hp_can_tx
                0x080036e8                __irq_rtcalarm
                0x080036e8                __stm32reservedexception8
                0x080036e8                __exc_pendsv
                0x080036e8                __irq_usbwakeup
                0x080036e8                __irq_rcc
 *fill*         0x080036ea        0x2 
 .text.systick_init
                0x080036ec       0x10 D:\projects\arduino\buildtemp\core\core.a(systick.c.o)
                0x080036ec                systick_init
 .text.__exc_systick
                0x080036fc       0x1c D:\projects\arduino\buildtemp\core\core.a(systick.c.o)
                0x080036fc                __exc_systick
 .text.timer_oc_set_mode
                0x08003718       0x3a D:\projects\arduino\buildtemp\core\core.a(timer.c.o)
 .text.timer_cc_enable
                0x08003752       0x1c D:\projects\arduino\buildtemp\core\core.a(timer.c.o)
 *fill*         0x0800376e        0x2 
 .text.timer_foreach
                0x08003770       0x28 D:\projects\arduino\buildtemp\core\core.a(timer.c.o)
                0x08003770                timer_foreach
 .text.timer_init
                0x08003798       0x14 D:\projects\arduino\buildtemp\core\core.a(timer.c.o)
                0x08003798                timer_init
 .text.timer_has_cc_channel
                0x080037ac       0x30 D:\projects\arduino\buildtemp\core\core.a(timer.c.o)
                0x080037ac                timer_has_cc_channel
 .text.timer_attach_interrupt
                0x080037dc       0xe0 D:\projects\arduino\buildtemp\core\core.a(timer.c.o)
                0x080037dc                timer_attach_interrupt
 .text.timer_detach_interrupt
                0x080038bc       0x1e D:\projects\arduino\buildtemp\core\core.a(timer.c.o)
                0x080038bc                timer_detach_interrupt
 .text.input_capture_mode
                0x080038da       0x1a D:\projects\arduino\buildtemp\core\core.a(timer.c.o)
                0x080038da                input_capture_mode
 .text.timer_set_mode
                0x080038f4       0x8c D:\projects\arduino\buildtemp\core\core.a(timer.c.o)
                0x080038f4                timer_set_mode
 .text.__irq_tim1_brk
                0x08003980       0x24 D:\projects\arduino\buildtemp\core\core.a(timer.c.o)
                0x08003980                __irq_tim1_brk
 .text.__irq_tim1_up
                0x080039a4       0x24 D:\projects\arduino\buildtemp\core\core.a(timer.c.o)
                0x080039a4                __irq_tim1_up
 .text.__irq_tim1_trg_com
                0x080039c8       0x38 D:\projects\arduino\buildtemp\core\core.a(timer.c.o)
                0x080039c8                __irq_tim1_trg_com
 .text.__irq_tim1_cc
                0x08003a00       0x54 D:\projects\arduino\buildtemp\core\core.a(timer.c.o)
                0x08003a00                __irq_tim1_cc
 .text.__irq_tim2
                0x08003a54       0x70 D:\projects\arduino\buildtemp\core\core.a(timer.c.o)
                0x08003a54                __irq_tim2
 .text.__irq_tim3
                0x08003ac4       0x70 D:\projects\arduino\buildtemp\core\core.a(timer.c.o)
                0x08003ac4                __irq_tim3
 .text.__irq_tim4
                0x08003b34       0x70 D:\projects\arduino\buildtemp\core\core.a(timer.c.o)
                0x08003b34                __irq_tim4
 .text.usart_tx
                0x08003ba4       0x9c D:\projects\arduino\buildtemp\core\core.a(usart.c.o)
                0x08003ba4                usart_tx
 .text.rb_remove
                0x08003c40       0x24 D:\projects\arduino\buildtemp\core\core.a(usart_f1.c.o)
 .text.rb_push_insert
                0x08003c64       0x52 D:\projects\arduino\buildtemp\core\core.a(usart_f1.c.o)
 *fill*         0x08003cb6        0x2 
 .text.__irq_usart1
                0x08003cb8       0x54 D:\projects\arduino\buildtemp\core\core.a(usart_f1.c.o)
                0x08003cb8                __irq_usart1
 .text.__irq_usart2
                0x08003d0c       0x54 D:\projects\arduino\buildtemp\core\core.a(usart_f1.c.o)
                0x08003d0c                __irq_usart2
 .text.__irq_usart3
                0x08003d60       0x54 D:\projects\arduino\buildtemp\core\core.a(usart_f1.c.o)
                0x08003d60                __irq_usart3
 .text.usb_resume
                0x08003db4       0xb4 D:\projects\arduino\buildtemp\core\core.a(usb.c.o)
 .text.usb_init_usblib
                0x08003e68       0x48 D:\projects\arduino\buildtemp\core\core.a(usb.c.o)
                0x08003e68                usb_init_usblib
 .text.__irq_usb_lp_can_rx0
                0x08003eb0      0x1c8 D:\projects\arduino\buildtemp\core\core.a(usb.c.o)
                0x08003eb0                __irq_usb_lp_can_rx0
 .text.usb_set_ep_rx_stat
                0x08004078       0x22 D:\projects\arduino\buildtemp\core\core.a(usb_cdcacm.c.o)
 *fill*         0x0800409a        0x2 
 .text.vcomGetSetLineCoding
                0x0800409c       0x18 D:\projects\arduino\buildtemp\core\core.a(usb_cdcacm.c.o)
 .text.usbDataSetup
                0x080040b4       0x54 D:\projects\arduino\buildtemp\core\core.a(usb_cdcacm.c.o)
 .text.usbNoDataSetup
                0x08004108       0x50 D:\projects\arduino\buildtemp\core\core.a(usb_cdcacm.c.o)
 .text.usbGetInterfaceSetting
                0x08004158       0x10 D:\projects\arduino\buildtemp\core\core.a(usb_cdcacm.c.o)
 .text.usbSetConfiguration
                0x08004168       0x1c D:\projects\arduino\buildtemp\core\core.a(usb_cdcacm.c.o)
 .text.usbSetDeviceAddress
                0x08004184       0x10 D:\projects\arduino\buildtemp\core\core.a(usb_cdcacm.c.o)
 .text.usbGetStringDescriptor
                0x08004194       0x20 D:\projects\arduino\buildtemp\core\core.a(usb_cdcacm.c.o)
 .text.usbGetConfigDescriptor
                0x080041b4        0xc D:\projects\arduino\buildtemp\core\core.a(usb_cdcacm.c.o)
 .text.usbGetDeviceDescriptor
                0x080041c0        0xc D:\projects\arduino\buildtemp\core\core.a(usb_cdcacm.c.o)
 .text.usbInit  0x080041cc       0x44 D:\projects\arduino\buildtemp\core\core.a(usb_cdcacm.c.o)
 .text.vcomDataTxCb
                0x08004210       0xa0 D:\projects\arduino\buildtemp\core\core.a(usb_cdcacm.c.o)
 .text.usbReset
                0x080042b0      0x160 D:\projects\arduino\buildtemp\core\core.a(usb_cdcacm.c.o)
 .text.vcomDataRxCb
                0x08004410       0x7c D:\projects\arduino\buildtemp\core\core.a(usb_cdcacm.c.o)
 .text.usb_cdcacm_set_hooks
                0x0800448c       0x1c D:\projects\arduino\buildtemp\core\core.a(usb_cdcacm.c.o)
                0x0800448c                usb_cdcacm_set_hooks
 .text.usb_cdcacm_enable
                0x080044a8       0x38 D:\projects\arduino\buildtemp\core\core.a(usb_cdcacm.c.o)
                0x080044a8                usb_cdcacm_enable
 .text.usb_cdcacm_tx
                0x080044e0       0x60 D:\projects\arduino\buildtemp\core\core.a(usb_cdcacm.c.o)
                0x080044e0                usb_cdcacm_tx
 .text.usb_cdcacm_data_available
                0x08004540       0x18 D:\projects\arduino\buildtemp\core\core.a(usb_cdcacm.c.o)
                0x08004540                usb_cdcacm_data_available
 .text.usb_cdcacm_peek
                0x08004558       0x38 D:\projects\arduino\buildtemp\core\core.a(usb_cdcacm.c.o)
                0x08004558                usb_cdcacm_peek
 .text.usb_cdcacm_rx
                0x08004590       0x34 D:\projects\arduino\buildtemp\core\core.a(usb_cdcacm.c.o)
                0x08004590                usb_cdcacm_rx
 .text.usb_cdcacm_peek_ex
                0x080045c4       0x40 D:\projects\arduino\buildtemp\core\core.a(usb_cdcacm.c.o)
                0x080045c4                usb_cdcacm_peek_ex
 .text.usb_cdcacm_get_dtr
                0x08004604       0x10 D:\projects\arduino\buildtemp\core\core.a(usb_cdcacm.c.o)
                0x08004604                usb_cdcacm_get_dtr
 .text.usb_set_ep_rx_count
                0x08004614       0x40 D:\projects\arduino\buildtemp\core\core.a(usb_reg_map.c.o)
                0x08004614                usb_set_ep_rx_count
 .text.Standard_GetConfiguration
                0x08004654       0x24 D:\projects\arduino\buildtemp\core\core.a(usb_core.c.o)
                0x08004654                Standard_GetConfiguration
 .text.Standard_GetInterface
                0x08004678       0x24 D:\projects\arduino\buildtemp\core\core.a(usb_core.c.o)
                0x08004678                Standard_GetInterface
 .text.Standard_GetStatus
                0x0800469c       0x90 D:\projects\arduino\buildtemp\core\core.a(usb_core.c.o)
                0x0800469c                Standard_GetStatus
 .text.DataStageIn
                0x0800472c       0xa8 D:\projects\arduino\buildtemp\core\core.a(usb_core.c.o)
 .text.Standard_SetConfiguration
                0x080047d4       0x38 D:\projects\arduino\buildtemp\core\core.a(usb_core.c.o)
                0x080047d4                Standard_SetConfiguration
 .text.Standard_SetInterface
                0x0800480c       0x48 D:\projects\arduino\buildtemp\core\core.a(usb_core.c.o)
                0x0800480c                Standard_SetInterface
 .text.Standard_ClearFeature
                0x08004854       0xd0 D:\projects\arduino\buildtemp\core\core.a(usb_core.c.o)
                0x08004854                Standard_ClearFeature
 .text.Standard_SetEndPointFeature
                0x08004924       0x84 D:\projects\arduino\buildtemp\core\core.a(usb_core.c.o)
                0x08004924                Standard_SetEndPointFeature
 .text.Standard_SetDeviceFeature
                0x080049a8       0x24 D:\projects\arduino\buildtemp\core\core.a(usb_core.c.o)
                0x080049a8                Standard_SetDeviceFeature
 .text.Standard_GetDescriptorData
                0x080049cc       0x1c D:\projects\arduino\buildtemp\core\core.a(usb_core.c.o)
                0x080049cc                Standard_GetDescriptorData
 .text.Post0_Process
                0x080049e8       0x40 D:\projects\arduino\buildtemp\core\core.a(usb_core.c.o)
                0x080049e8                Post0_Process
 .text.Setup0_Process
                0x08004a28      0x2d0 D:\projects\arduino\buildtemp\core\core.a(usb_core.c.o)
                0x08004a28                Setup0_Process
 .text.Out0_Process
                0x08004cf8       0xc8 D:\projects\arduino\buildtemp\core\core.a(usb_core.c.o)
                0x08004cf8                Out0_Process
 .text.SetDeviceAddress
                0x08004dc0       0x38 D:\projects\arduino\buildtemp\core\core.a(usb_core.c.o)
                0x08004dc0                SetDeviceAddress
 .text.In0_Process
                0x08004df8       0x5c D:\projects\arduino\buildtemp\core\core.a(usb_core.c.o)
                0x08004df8                In0_Process
 .text.NOP_Process
                0x08004e54        0x2 D:\projects\arduino\buildtemp\core\core.a(usb_core.c.o)
                0x08004e54                NOP_Process
 .text.UserToPMABufferCopy
                0x08004e56       0x30 D:\projects\arduino\buildtemp\core\core.a(usb_mem.c.o)
                0x08004e56                UserToPMABufferCopy
 .text.PMAToUserBufferCopy
                0x08004e86       0x24 D:\projects\arduino\buildtemp\core\core.a(usb_mem.c.o)
                0x08004e86                PMAToUserBufferCopy
 .text.SetEPTxStatus
                0x08004eaa       0x2a D:\projects\arduino\buildtemp\core\core.a(usb_regs.c.o)
                0x08004eaa                SetEPTxStatus
 .text.ClearDTOG_RX
                0x08004ed4       0x20 D:\projects\arduino\buildtemp\core\core.a(usb_regs.c.o)
                0x08004ed4                ClearDTOG_RX
 .text.ClearDTOG_TX
                0x08004ef4       0x20 D:\projects\arduino\buildtemp\core\core.a(usb_regs.c.o)
                0x08004ef4                ClearDTOG_TX
 .text.GetEPTxAddr
                0x08004f14       0x1c D:\projects\arduino\buildtemp\core\core.a(usb_regs.c.o)
                0x08004f14                GetEPTxAddr
 .text.GetEPRxAddr
                0x08004f30       0x1c D:\projects\arduino\buildtemp\core\core.a(usb_regs.c.o)
                0x08004f30                GetEPRxAddr
 .text.SetEPTxCount
                0x08004f4c       0x1c D:\projects\arduino\buildtemp\core\core.a(usb_regs.c.o)
                0x08004f4c                SetEPTxCount
 .text.SetEPRxCount
                0x08004f68       0x40 D:\projects\arduino\buildtemp\core\core.a(usb_regs.c.o)
                0x08004f68                SetEPRxCount
 .text.usart_putc
                0x08004fa8       0x1c D:\projects\arduino\buildtemp\core\core.a(util.c.o)
 .text.usart_putstr
                0x08004fc4       0x16 D:\projects\arduino\buildtemp\core\core.a(util.c.o)
 *fill*         0x08004fda        0x2 
 .text.throb    0x08004fdc       0x4c D:\projects\arduino\buildtemp\core\core.a(util.c.o)
                0x08004fdc                throb
 .text.__error  0x08005028       0x14 D:\projects\arduino\buildtemp\core\core.a(util.c.o)
                0x08005028                __error
 .text.abort    0x0800503c       0x1c D:\projects\arduino\buildtemp\core\core.a(util.c.o)
                0x0800503c                abort
 .text.startup._Z7premainv
                0x08005058        0x4 D:\projects\arduino\buildtemp\core\core.a(main.cpp.o)
                0x08005058                premain()
 .text.startup.main
                0x0800505c        0xc D:\projects\arduino\buildtemp\core\core.a(main.cpp.o)
                0x0800505c                main
 .text._Z8pwmWriteht
                0x08005068       0x24 D:\projects\arduino\buildtemp\core\core.a(pwm.cpp.o)
                0x08005068                pwmWrite(unsigned char, unsigned short)
 .text._Z7pinModeh13WiringPinMode
                0x0800508c       0x84 D:\projects\arduino\buildtemp\core\core.a(wirish_digital_f1.cpp.o)
                0x0800508c                pinMode(unsigned char, WiringPinMode)
 .text._ZN9USBSerial9availableEv
                0x08005110        0x4 D:\projects\arduino\buildtemp\core\core.a(usb_serial.cpp.o)
                0x08005110                USBSerial::available()
 .text._ZN9USBSerial4peekEv
                0x08005114       0x1e D:\projects\arduino\buildtemp\core\core.a(usb_serial.cpp.o)
                0x08005114                USBSerial::peek()
 .text._ZN9USBSerial4readEv
                0x08005132       0x1e D:\projects\arduino\buildtemp\core\core.a(usb_serial.cpp.o)
                0x08005132                USBSerial::read()
 .text._ZL14ifaceSetupHookjPv
                0x08005150       0x38 D:\projects\arduino\buildtemp\core\core.a(usb_serial.cpp.o)
 .text._ZL6rxHookjPv
                0x08005188       0xa0 D:\projects\arduino\buildtemp\core\core.a(usb_serial.cpp.o)
 .text._ZL10wait_resetv
                0x08005228       0x10 D:\projects\arduino\buildtemp\core\core.a(usb_serial.cpp.o)
 .text._ZN9USBSerialC2Ev
                0x08005238       0x14 D:\projects\arduino\buildtemp\core\core.a(usb_serial.cpp.o)
                0x08005238                USBSerial::USBSerial()
                0x08005238                USBSerial::USBSerial()
 .text._ZN9USBSerial5beginEv
                0x0800524c       0x34 D:\projects\arduino\buildtemp\core\core.a(usb_serial.cpp.o)
                0x0800524c                USBSerial::begin()
 .text._ZN9USBSerial5beginEm
                0x08005280       0x10 D:\projects\arduino\buildtemp\core\core.a(usb_serial.cpp.o)
                0x08005280                USBSerial::begin(unsigned long)
 .text._ZN9USBSerial4readEPhm
                0x08005290       0x1c D:\projects\arduino\buildtemp\core\core.a(usb_serial.cpp.o)
                0x08005290                USBSerial::read(unsigned char*, unsigned long)
 .text._ZN9USBSerial5flushEv
                0x080052ac       0x1c D:\projects\arduino\buildtemp\core\core.a(usb_serial.cpp.o)
                0x080052ac                USBSerial::flush()
 .text._ZN9USBSerialcvbEv
                0x080052c8       0x20 D:\projects\arduino\buildtemp\core\core.a(usb_serial.cpp.o)
                0x080052c8                USBSerial::operator bool()
 .text._ZN9USBSerial5writeEPKhm
                0x080052e8       0x24 D:\projects\arduino\buildtemp\core\core.a(usb_serial.cpp.o)
                0x080052e8                USBSerial::write(unsigned char const*, unsigned long)
 .text._ZN9USBSerial5writeEh
                0x0800530c       0x18 D:\projects\arduino\buildtemp\core\core.a(usb_serial.cpp.o)
                0x0800530c                USBSerial::write(unsigned char)
 .text._ZN9USBSerial5writeEPKc
                0x08005324       0x1a D:\projects\arduino\buildtemp\core\core.a(usb_serial.cpp.o)
                0x08005324                USBSerial::write(char const*)
 *fill*         0x0800533e        0x2 
 .text.startup._GLOBAL__sub_I__ZN9USBSerial9_hasBegunE
                0x08005340        0xc D:\projects\arduino\buildtemp\core\core.a(usb_serial.cpp.o)
 .text._Z11digitalReadh
                0x0800534c       0x2c D:\projects\arduino\buildtemp\core\core.a(wirish_digital.cpp.o)
                0x0800534c                digitalRead(unsigned char)
 .text.bkp_init
                0x08005378       0x18 D:\projects\arduino\buildtemp\core\core.a(bkp_f1.c.o)
                0x08005378                bkp_init
 .text.bkp_enable_writes
                0x08005390        0xc D:\projects\arduino\buildtemp\core\core.a(bkp_f1.c.o)
                0x08005390                bkp_enable_writes
 .text.bkp_disable_writes
                0x0800539c        0xc D:\projects\arduino\buildtemp\core\core.a(bkp_f1.c.o)
                0x0800539c                bkp_disable_writes
 .text.bkp_write
                0x080053a8       0x16 D:\projects\arduino\buildtemp\core\core.a(bkp_f1.c.o)
                0x080053a8                bkp_write
 .text.gpio_init
                0x080053be       0x14 D:\projects\arduino\buildtemp\core\core.a(gpio.c.o)
                0x080053be                gpio_init
 .text.i2c_start_condition
                0x080053d2       0x14 D:\projects\arduino\buildtemp\core\core.a(i2c.c.o)
 .text.i2c_stop_condition
                0x080053e6       0x1c D:\projects\arduino\buildtemp\core\core.a(i2c.c.o)
 *fill*         0x08005402        0x2 
 .text._i2c_irq_handler
                0x08005404      0x16c D:\projects\arduino\buildtemp\core\core.a(i2c.c.o)
                0x08005404                _i2c_irq_handler
 .text._i2c_irq_error_handler
                0x08005570       0x2a D:\projects\arduino\buildtemp\core\core.a(i2c.c.o)
                0x08005570                _i2c_irq_error_handler
 *fill*         0x0800559a        0x2 
 .text.__aeabi_atexit
                0x0800559c        0xc c:/users/softegg/appdata/local/arduino15/packages/arduino/tools/arm-none-eabi-gcc/4.8.3-2014q1/bin/../lib/gcc/arm-none-eabi/4.8.3/../../../../arm-none-eabi/lib/armv7-m\libstdc++.a(atexit_arm.o)
                0x0800559c                __aeabi_atexit
 .text.pow      0x080055a8      0x2f8 c:/users/softegg/appdata/local/arduino15/packages/arduino/tools/arm-none-eabi-gcc/4.8.3-2014q1/bin/../lib/gcc/arm-none-eabi/4.8.3/../../../../arm-none-eabi/lib/armv7-m\libm.a(lib_a-w_pow.o)
                0x080055a8                pow
 .text.__ieee754_pow
                0x080058a0      0xab8 c:/users/softegg/appdata/local/arduino15/packages/arduino/tools/arm-none-eabi-gcc/4.8.3-2014q1/bin/../lib/gcc/arm-none-eabi/4.8.3/../../../../arm-none-eabi/lib/armv7-m\libm.a(lib_a-e_pow.o)
                0x080058a0                __ieee754_pow
 .text.__ieee754_sqrt
                0x08006358      0x180 c:/users/softegg/appdata/local/arduino15/packages/arduino/tools/arm-none-eabi-gcc/4.8.3-2014q1/bin/../lib/gcc/arm-none-eabi/4.8.3/../../../../arm-none-eabi/lib/armv7-m\libm.a(lib_a-e_sqrt.o)
                0x08006358                __ieee754_sqrt
 .text.fabs     0x080064d8        0x8 c:/users/softegg/appdata/local/arduino15/packages/arduino/tools/arm-none-eabi-gcc/4.8.3-2014q1/bin/../lib/gcc/arm-none-eabi/4.8.3/../../../../arm-none-eabi/lib/armv7-m\libm.a(lib_a-s_fabs.o)
                0x080064d8                fabs
 .text.finite   0x080064e0        0xc c:/users/softegg/appdata/local/arduino15/packages/arduino/tools/arm-none-eabi-gcc/4.8.3-2014q1/bin/../lib/gcc/arm-none-eabi/4.8.3/../../../../arm-none-eabi/lib/armv7-m\libm.a(lib_a-s_finite.o)
                0x080064e0                finite
 .text.__fpclassifyd
                0x080064ec       0x50 c:/users/softegg/appdata/local/arduino15/packages/arduino/tools/arm-none-eabi-gcc/4.8.3-2014q1/bin/../lib/gcc/arm-none-eabi/4.8.3/../../../../arm-none-eabi/lib/armv7-m\libm.a(lib_a-s_fpclassify.o)
                0x080064ec                __fpclassifyd
 .text.matherr  0x0800653c        0x4 c:/users/softegg/appdata/local/arduino15/packages/arduino/tools/arm-none-eabi-gcc/4.8.3-2014q1/bin/../lib/gcc/arm-none-eabi/4.8.3/../../../../arm-none-eabi/lib/armv7-m\libm.a(lib_a-s_matherr.o)
                0x0800653c                matherr
 .text.nan      0x08006540        0xc c:/users/softegg/appdata/local/arduino15/packages/arduino/tools/arm-none-eabi-gcc/4.8.3-2014q1/bin/../lib/gcc/arm-none-eabi/4.8.3/../../../../arm-none-eabi/lib/armv7-m\libm.a(lib_a-s_nan.o)
                0x08006540                nan
 .text.rint     0x0800654c      0x118 c:/users/softegg/appdata/local/arduino15/packages/arduino/tools/arm-none-eabi-gcc/4.8.3-2014q1/bin/../lib/gcc/arm-none-eabi/4.8.3/../../../../arm-none-eabi/lib/armv7-m\libm.a(lib_a-s_rint.o)
                0x0800654c                rint
 *fill*         0x08006664        0x4 
 .text.scalbn   0x08006668      0x100 c:/users/softegg/appdata/local/arduino15/packages/arduino/tools/arm-none-eabi-gcc/4.8.3-2014q1/bin/../lib/gcc/arm-none-eabi/4.8.3/../../../../arm-none-eabi/lib/armv7-m\libm.a(lib_a-s_scalbn.o)
                0x08006668                scalbn
 .text.copysign
                0x08006768       0x14 c:/users/softegg/appdata/local/arduino15/packages/arduino/tools/arm-none-eabi-gcc/4.8.3-2014q1/bin/../lib/gcc/arm-none-eabi/4.8.3/../../../../arm-none-eabi/lib/armv7-m\libm.a(lib_a-s_copysign.o)
                0x08006768                copysign
 .text          0x0800677c      0x370 c:/users/softegg/appdata/local/arduino15/packages/arduino/tools/arm-none-eabi-gcc/4.8.3-2014q1/bin/../lib/gcc/arm-none-eabi/4.8.3/armv7-m\libgcc.a(_arm_addsubdf3.o)
                0x0800677c                __aeabi_drsub
                0x08006784                __aeabi_dsub
                0x08006784                __subdf3
                0x08006788                __aeabi_dadd
                0x08006788                __adddf3
                0x08006a00                __floatunsidf
                0x08006a00                __aeabi_ui2d
                0x08006a20                __floatsidf
                0x08006a20                __aeabi_i2d
                0x08006a44                __aeabi_f2d
                0x08006a44                __extendsfdf2
                0x08006a80                __floatundidf
                0x08006a80                __aeabi_ul2d
                0x08006a90                __floatdidf
                0x08006a90                __aeabi_l2d
 .text          0x08006aec      0x424 c:/users/softegg/appdata/local/arduino15/packages/arduino/tools/arm-none-eabi-gcc/4.8.3-2014q1/bin/../lib/gcc/arm-none-eabi/4.8.3/armv7-m\libgcc.a(_arm_muldivdf3.o)
                0x08006aec                __aeabi_dmul
                0x08006aec                __muldf3
                0x08006d40                __divdf3
                0x08006d40                __aeabi_ddiv
 .text          0x08006f10      0x110 c:/users/softegg/appdata/local/arduino15/packages/arduino/tools/arm-none-eabi-gcc/4.8.3-2014q1/bin/../lib/gcc/arm-none-eabi/4.8.3/armv7-m\libgcc.a(_arm_cmpdf2.o)
                0x08006f10                __gtdf2
                0x08006f10                __gedf2
                0x08006f18                __ltdf2
                0x08006f18                __ledf2
                0x08006f20                __nedf2
                0x08006f20                __eqdf2
                0x08006f20                __cmpdf2
                0x08006f9c                __aeabi_cdrcmple
                0x08006fac                __aeabi_cdcmpeq
                0x08006fac                __aeabi_cdcmple
                0x08006fbc                __aeabi_dcmpeq
                0x08006fd0                __aeabi_dcmplt
                0x08006fe4                __aeabi_dcmple
                0x08006ff8                __aeabi_dcmpge
                0x0800700c                __aeabi_dcmpgt
 .text          0x08007020       0xa0 c:/users/softegg/appdata/local/arduino15/packages/arduino/tools/arm-none-eabi-gcc/4.8.3-2014q1/bin/../lib/gcc/arm-none-eabi/4.8.3/armv7-m\libgcc.a(_arm_truncdfsf2.o)
                0x08007020                __truncdfsf2
                0x08007020                __aeabi_d2f
 .text          0x080070c0      0x21c c:/users/softegg/appdata/local/arduino15/packages/arduino/tools/arm-none-eabi-gcc/4.8.3-2014q1/bin/../lib/gcc/arm-none-eabi/4.8.3/armv7-m\libgcc.a(_arm_addsubsf3.o)
                0x080070c0                __aeabi_frsub
                0x080070c8                __subsf3
                0x080070c8                __aeabi_fsub
                0x080070cc                __aeabi_fadd
                0x080070cc                __addsf3
                0x0800722c                __aeabi_ui2f
                0x0800722c                __floatunsisf
                0x08007234                __aeabi_i2f
                0x08007234                __floatsisf
                0x08007250                __aeabi_ul2f
                0x08007250                __floatundisf
                0x08007260                __aeabi_l2f
                0x08007260                __floatdisf
 .text          0x080072dc      0x2a0 c:/users/softegg/appdata/local/arduino15/packages/arduino/tools/arm-none-eabi-gcc/4.8.3-2014q1/bin/../lib/gcc/arm-none-eabi/4.8.3/armv7-m\libgcc.a(_arm_muldivsf3.o)
                0x080072dc                __mulsf3
                0x080072dc                __aeabi_fmul
                0x08007444                __aeabi_fdiv
                0x08007444                __divsf3
 .text          0x0800757c       0xec c:/users/softegg/appdata/local/arduino15/packages/arduino/tools/arm-none-eabi-gcc/4.8.3-2014q1/bin/../lib/gcc/arm-none-eabi/4.8.3/armv7-m\libgcc.a(_arm_cmpsf2.o)
                0x0800757c                __gesf2
                0x0800757c                __gtsf2
                0x08007584                __lesf2
                0x08007584                __ltsf2
                0x0800758c                __nesf2
                0x0800758c                __eqsf2
                0x0800758c                __cmpsf2
                0x080075ec                __aeabi_cfrcmple
                0x080075f4                __aeabi_cfcmpeq
                0x080075f4                __aeabi_cfcmple
                0x08007604                __aeabi_fcmpeq
                0x08007618                __aeabi_fcmplt
                0x0800762c                __aeabi_fcmple
                0x08007640                __aeabi_fcmpge
                0x08007654                __aeabi_fcmpgt
 .text          0x08007668       0x40 c:/users/softegg/appdata/local/arduino15/packages/arduino/tools/arm-none-eabi-gcc/4.8.3-2014q1/bin/../lib/gcc/arm-none-eabi/4.8.3/armv7-m\libgcc.a(_arm_fixunssfsi.o)
                0x08007668                __fixunssfsi
                0x08007668                __aeabi_f2uiz
 .text          0x080076a8       0x2c c:/users/softegg/appdata/local/arduino15/packages/arduino/tools/arm-none-eabi-gcc/4.8.3-2014q1/bin/../lib/gcc/arm-none-eabi/4.8.3/armv7-m\libgcc.a(_aeabi_uldivmod.o)
                0x080076a8                __aeabi_uldivmod
 .text          0x080076d4       0x60 c:/users/softegg/appdata/local/arduino15/packages/arduino/tools/arm-none-eabi-gcc/4.8.3-2014q1/bin/../lib/gcc/arm-none-eabi/4.8.3/armv7-m\libgcc.a(bpabi.o)
                0x080076d4                __gnu_ldivmod_helper
                0x08007704                __gnu_uldivmod_helper
 .text          0x08007734        0x4 c:/users/softegg/appdata/local/arduino15/packages/arduino/tools/arm-none-eabi-gcc/4.8.3-2014q1/bin/../lib/gcc/arm-none-eabi/4.8.3/armv7-m\libgcc.a(_dvmd_tls.o)
                0x08007734                __aeabi_idiv0
                0x08007734                __aeabi_ldiv0
 .text          0x08007738      0x2a0 c:/users/softegg/appdata/local/arduino15/packages/arduino/tools/arm-none-eabi-gcc/4.8.3-2014q1/bin/../lib/gcc/arm-none-eabi/4.8.3/armv7-m\libgcc.a(_divdi3.o)
                0x08007738                __divdi3
 .text          0x080079d8      0x290 c:/users/softegg/appdata/local/arduino15/packages/arduino/tools/arm-none-eabi-gcc/4.8.3-2014q1/bin/../lib/gcc/arm-none-eabi/4.8.3/armv7-m\libgcc.a(_udivdi3.o)
                0x080079d8                __udivdi3
 .text.__cxa_atexit
                0x08007c68       0x14 c:/users/softegg/appdata/local/arduino15/packages/arduino/tools/arm-none-eabi-gcc/4.8.3-2014q1/bin/../lib/gcc/arm-none-eabi/4.8.3/../../../../arm-none-eabi/lib/armv7-m\libc.a(lib_a-cxa_atexit.o)
                0x08007c68                __cxa_atexit
 .text.__errno  0x08007c7c        0xc c:/users/softegg/appdata/local/arduino15/packages/arduino/tools/arm-none-eabi-gcc/4.8.3-2014q1/bin/../lib/gcc/arm-none-eabi/4.8.3/../../../../arm-none-eabi/lib/armv7-m\libc.a(lib_a-errno.o)
                0x08007c7c                __errno
 .text.exit     0x08007c88       0x20 c:/users/softegg/appdata/local/arduino15/packages/arduino/tools/arm-none-eabi-gcc/4.8.3-2014q1/bin/../lib/gcc/arm-none-eabi/4.8.3/../../../../arm-none-eabi/lib/armv7-m\libc.a(lib_a-exit.o)
                0x08007c88                exit
 .text.__libc_init_array
                0x08007ca8       0x50 c:/users/softegg/appdata/local/arduino15/packages/arduino/tools/arm-none-eabi-gcc/4.8.3-2014q1/bin/../lib/gcc/arm-none-eabi/4.8.3/../../../../arm-none-eabi/lib/armv7-m\libc.a(lib_a-init.o)
                0x08007ca8                __libc_init_array
 .text.malloc   0x08007cf8       0x10 c:/users/softegg/appdata/local/arduino15/packages/arduino/tools/arm-none-eabi-gcc/4.8.3-2014q1/bin/../lib/gcc/arm-none-eabi/4.8.3/../../../../arm-none-eabi/lib/armv7-m\libc.a(lib_a-malloc.o)
                0x08007cf8                malloc
 .text.free     0x08007d08       0x10 c:/users/softegg/appdata/local/arduino15/packages/arduino/tools/arm-none-eabi-gcc/4.8.3-2014q1/bin/../lib/gcc/arm-none-eabi/4.8.3/../../../../arm-none-eabi/lib/armv7-m\libc.a(lib_a-malloc.o)
                0x08007d08                free
 .text._malloc_r
                0x08007d18      0x538 c:/users/softegg/appdata/local/arduino15/packages/arduino/tools/arm-none-eabi-gcc/4.8.3-2014q1/bin/../lib/gcc/arm-none-eabi/4.8.3/../../../../arm-none-eabi/lib/armv7-m\libc.a(lib_a-mallocr.o)
                0x08007d18                _malloc_r
 .text          0x08008250       0xec c:/users/softegg/appdata/local/arduino15/packages/arduino/tools/arm-none-eabi-gcc/4.8.3-2014q1/bin/../lib/gcc/arm-none-eabi/4.8.3/../../../../arm-none-eabi/lib/armv7-m\libc.a(lib_a-memcpy.o)
                0x08008250                memcpy
 .text.__malloc_lock
                0x0800833c        0x4 c:/users/softegg/appdata/local/arduino15/packages/arduino/tools/arm-none-eabi-gcc/4.8.3-2014q1/bin/../lib/gcc/arm-none-eabi/4.8.3/../../../../arm-none-eabi/lib/armv7-m\libc.a(lib_a-mlock.o)
                0x0800833c                __malloc_lock
 .text.__malloc_unlock
                0x08008340        0x4 c:/users/softegg/appdata/local/arduino15/packages/arduino/tools/arm-none-eabi-gcc/4.8.3-2014q1/bin/../lib/gcc/arm-none-eabi/4.8.3/../../../../arm-none-eabi/lib/armv7-m\libc.a(lib_a-mlock.o)
                0x08008340                __malloc_unlock
 .text._sbrk_r  0x08008344       0x24 c:/users/softegg/appdata/local/arduino15/packages/arduino/tools/arm-none-eabi-gcc/4.8.3-2014q1/bin/../lib/gcc/arm-none-eabi/4.8.3/../../../../arm-none-eabi/lib/armv7-m\libc.a(lib_a-sbrkr.o)
                0x08008344                _sbrk_r
 .text.strlen   0x08008368       0x60 c:/users/softegg/appdata/local/arduino15/packages/arduino/tools/arm-none-eabi-gcc/4.8.3-2014q1/bin/../lib/gcc/arm-none-eabi/4.8.3/../../../../arm-none-eabi/lib/armv7-m\libc.a(lib_a-strlen.o)
                0x08008368                strlen
 .text.__register_exitproc
                0x080083c8       0xa8 c:/users/softegg/appdata/local/arduino15/packages/arduino/tools/arm-none-eabi-gcc/4.8.3-2014q1/bin/../lib/gcc/arm-none-eabi/4.8.3/../../../../arm-none-eabi/lib/armv7-m\libc.a(lib_a-__atexit.o)
                0x080083c8                __register_exitproc
 .text.startup.register_fini
                0x08008470       0x14 c:/users/softegg/appdata/local/arduino15/packages/arduino/tools/arm-none-eabi-gcc/4.8.3-2014q1/bin/../lib/gcc/arm-none-eabi/4.8.3/../../../../arm-none-eabi/lib/armv7-m\libc.a(lib_a-__call_atexit.o)
 .text.__call_exitprocs
                0x08008484       0xf0 c:/users/softegg/appdata/local/arduino15/packages/arduino/tools/arm-none-eabi-gcc/4.8.3-2014q1/bin/../lib/gcc/arm-none-eabi/4.8.3/../../../../arm-none-eabi/lib/armv7-m\libc.a(lib_a-__call_atexit.o)
                0x08008484                __call_exitprocs
 .text.atexit   0x08008574        0xc c:/users/softegg/appdata/local/arduino15/packages/arduino/tools/arm-none-eabi-gcc/4.8.3-2014q1/bin/../lib/gcc/arm-none-eabi/4.8.3/../../../../arm-none-eabi/lib/armv7-m\libc.a(lib_a-atexit.o)
                0x08008574                atexit
 .text.__libc_fini_array
                0x08008580       0x30 c:/users/softegg/appdata/local/arduino15/packages/arduino/tools/arm-none-eabi-gcc/4.8.3-2014q1/bin/../lib/gcc/arm-none-eabi/4.8.3/../../../../arm-none-eabi/lib/armv7-m\libc.a(lib_a-fini.o)
                0x08008580                __libc_fini_array
 .text._malloc_trim_r
                0x080085b0       0x9c c:/users/softegg/appdata/local/arduino15/packages/arduino/tools/arm-none-eabi-gcc/4.8.3-2014q1/bin/../lib/gcc/arm-none-eabi/4.8.3/../../../../arm-none-eabi/lib/armv7-m\libc.a(lib_a-freer.o)
                0x080085b0                _malloc_trim_r
 .text._free_r  0x0800864c      0x198 c:/users/softegg/appdata/local/arduino15/packages/arduino/tools/arm-none-eabi-gcc/4.8.3-2014q1/bin/../lib/gcc/arm-none-eabi/4.8.3/../../../../arm-none-eabi/lib/armv7-m\libc.a(lib_a-freer.o)
                0x0800864c                _free_r
 *(.plt)
 *(.gnu.warning)
 *(.glue_7t)
 .glue_7t       0x00000000        0x0 linker stubs
 *(.glue_7)
 .glue_7        0x00000000        0x0 linker stubs
 *(.vfp11_veneer)
 .vfp11_veneer  0x00000000        0x0 linker stubs
 *(.ARM.extab* .gnu.linkonce.armextab.*)
 *(.gcc_except_table)
 *(.eh_frame_hdr)
 *(.eh_frame)
 .eh_frame      0x080087e4        0x0 c:/users/softegg/appdata/local/arduino15/packages/arduino/tools/arm-none-eabi-gcc/4.8.3-2014q1/bin/../lib/gcc/arm-none-eabi/4.8.3/armv7-m/crtbegin.o
                0x080087e4                . = ALIGN (0x4)
 *(.init)
 .init          0x080087e4        0x4 c:/users/softegg/appdata/local/arduino15/packages/arduino/tools/arm-none-eabi-gcc/4.8.3-2014q1/bin/../lib/gcc/arm-none-eabi/4.8.3/armv7-m/crti.o
                0x080087e4                _init
 .init          0x080087e8        0x8 c:/users/softegg/appdata/local/arduino15/packages/arduino/tools/arm-none-eabi-gcc/4.8.3-2014q1/bin/../lib/gcc/arm-none-eabi/4.8.3/armv7-m/crtn.o
                0x080087f0                . = ALIGN (0x4)
                0x080087f0                __preinit_array_start = .
 *(.preinit_array)
                0x080087f0                __preinit_array_end = .
                0x080087f0                . = ALIGN (0x4)
                0x080087f0                __init_array_start = .
 *(SORT(.init_array.*))
 .init_array.00000
                0x080087f0        0x4 c:/users/softegg/appdata/local/arduino15/packages/arduino/tools/arm-none-eabi-gcc/4.8.3-2014q1/bin/../lib/gcc/arm-none-eabi/4.8.3/../../../../arm-none-eabi/lib/armv7-m\libc.a(lib_a-__call_atexit.o)
 .init_array.00101
                0x080087f4        0x4 D:\projects\arduino\buildtemp\core\core.a(main.cpp.o)
 *(.init_array)
 .init_array    0x080087f8        0x4 c:/users/softegg/appdata/local/arduino15/packages/arduino/tools/arm-none-eabi-gcc/4.8.3-2014q1/bin/../lib/gcc/arm-none-eabi/4.8.3/armv7-m/crtbegin.o
 .init_array    0x080087fc        0x4 D:\projects\arduino\buildtemp\sketch\Stylish.pde.cpp.o
 .init_array    0x08008800        0x4 D:\projects\arduino\buildtemp\libraries\Mozzi-master\MozziGuts.cpp.o
 .init_array    0x08008804        0x4 D:\projects\arduino\buildtemp\libraries\Mozzi-master\mozzi_analog.cpp.o
 .init_array    0x08008808        0x4 D:\projects\arduino\buildtemp\libraries\SPI\SPI.cpp.o
 .init_array    0x0800880c        0x4 D:\projects\arduino\buildtemp\core\board.cpp.o
 .init_array    0x08008810        0x4 D:\projects\arduino\buildtemp\core\core.a(HardwareTimer.cpp.o)
 .init_array    0x08008814        0x4 D:\projects\arduino\buildtemp\core\core.a(usb_serial.cpp.o)
                0x08008818                __init_array_end = .
                0x08008818                . = ALIGN (0x4)
 *crtbegin.o(.ctors)
 *(EXCLUDE_FILE(*crtend.o) .ctors)
 *(SORT(.ctors.*))
 *crtend.o(.ctors)
                0x08008818                . = ALIGN (0x4)
 *(.fini)
 .fini          0x08008818        0x4 c:/users/softegg/appdata/local/arduino15/packages/arduino/tools/arm-none-eabi-gcc/4.8.3-2014q1/bin/../lib/gcc/arm-none-eabi/4.8.3/armv7-m/crti.o
                0x08008818                _fini
 .fini          0x0800881c        0x8 c:/users/softegg/appdata/local/arduino15/packages/arduino/tools/arm-none-eabi-gcc/4.8.3-2014q1/bin/../lib/gcc/arm-none-eabi/4.8.3/armv7-m/crtn.o
                0x08008824                . = ALIGN (0x4)
                0x08008824                __fini_array_start = .
 *(.fini_array)
 .fini_array    0x08008824        0x4 c:/users/softegg/appdata/local/arduino15/packages/arduino/tools/arm-none-eabi-gcc/4.8.3-2014q1/bin/../lib/gcc/arm-none-eabi/4.8.3/armv7-m/crtbegin.o
 *(SORT(.fini_array.*))
                0x08008828                __fini_array_end = .
 *crtbegin.o(.dtors)
 *(EXCLUDE_FILE(*crtend.o) .dtors)
 *(SORT(.dtors.*))
 *crtend.o(.dtors)

.v4_bx          0x08008828        0x0
 .v4_bx         0x00000000        0x0 linker stubs

.iplt           0x08008828        0x0
 .iplt          0x00000000        0x0 c:/users/softegg/appdata/local/arduino15/packages/arduino/tools/arm-none-eabi-gcc/4.8.3-2014q1/bin/../lib/gcc/arm-none-eabi/4.8.3/armv7-m/crtbegin.o

.text.align     0x08008828        0x0
                0x08008828                . = ALIGN (0x8)
                0x08008828                __text_end__ = .
                0x08008828                __exidx_start = .

.ARM.exidx      0x08008828        0x8
 *(.ARM.exidx* .gnu.linkonce.armexidx.*)
 .ARM.exidx     0x08008828        0x8 D:\projects\arduino\buildtemp\core\wirish\start.S.o
 .ARM.exidx.text.__aeabi_atexit
                0x08008830        0x0 c:/users/softegg/appdata/local/arduino15/packages/arduino/tools/arm-none-eabi-gcc/4.8.3-2014q1/bin/../lib/gcc/arm-none-eabi/4.8.3/../../../../arm-none-eabi/lib/armv7-m\libstdc++.a(atexit_arm.o)
                                  0x8 (size before relaxing)
 .ARM.exidx     0x08008830        0x0 c:/users/softegg/appdata/local/arduino15/packages/arduino/tools/arm-none-eabi-gcc/4.8.3-2014q1/bin/../lib/gcc/arm-none-eabi/4.8.3/armv7-m\libgcc.a(_divdi3.o)
                                  0x8 (size before relaxing)
 .ARM.exidx     0x08008830        0x0 c:/users/softegg/appdata/local/arduino15/packages/arduino/tools/arm-none-eabi-gcc/4.8.3-2014q1/bin/../lib/gcc/arm-none-eabi/4.8.3/armv7-m\libgcc.a(_udivdi3.o)
                                  0x8 (size before relaxing)
                0x08008830                __exidx_end = .

.data           0x20000000     0x11c0 load address 0x08008830
                0x20000000                __data_start__ = .
                0x20000000        0x4 LONG 0x0
                0x20000008                . = ALIGN (0x8)
 *fill*         0x20000004        0x4 
 *(.got.plt)
 *(.got)
 *(.data .data.* .gnu.linkonce.d.*)
 .data          0x20000008        0x4 c:/users/softegg/appdata/local/arduino15/packages/arduino/tools/arm-none-eabi-gcc/4.8.3-2014q1/bin/../lib/gcc/arm-none-eabi/4.8.3/armv7-m/crtbegin.o
                0x20000008                __dso_handle
 .data.raw_key_down
                0x2000000c        0x1 D:\projects\arduino\buildtemp\sketch\Stylish.pde.cpp.o
                0x2000000c                raw_key_down
 .data.keyboard_pins
                0x2000000d       0x1c D:\projects\arduino\buildtemp\sketch\Stylish.pde.cpp.o
                0x2000000d                keyboard_pins
 *fill*         0x20000029        0x3 
 .data.fine_freq2
                0x2000002c        0x4 D:\projects\arduino\buildtemp\sketch\Stylish.pde.cpp.o
                0x2000002c                fine_freq2
 .data.MAGIC    0x20000030        0x9 D:\projects\arduino\buildtemp\sketch\Stylish.pde.cpp.o
                0x20000030                MAGIC
 *fill*         0x20000039        0x3 
 .data.UI_State_Strings
                0x2000003c       0x20 D:\projects\arduino\buildtemp\sketch\Stylish.pde.cpp.o
                0x2000003c                UI_State_Strings
 .data.UI_SubState_Strings
                0x2000005c       0x20 D:\projects\arduino\buildtemp\sketch\Stylish.pde.cpp.o
                0x2000005c                UI_SubState_Strings
 .data.note1_ofs
                0x2000007c        0x1 D:\projects\arduino\buildtemp\sketch\Stylish.pde.cpp.o
                0x2000007c                note1_ofs
 *fill*         0x2000007d        0x3 
 .data.Patch    0x20000080        0x4 D:\projects\arduino\buildtemp\sketch\Stylish.pde.cpp.o
                0x20000080                Patch
 .data.key_down
                0x20000084        0x1 D:\projects\arduino\buildtemp\sketch\Stylish.pde.cpp.o
                0x20000084                key_down
 *fill*         0x20000085        0x3 
 .data.fine_freq1
                0x20000088        0x4 D:\projects\arduino\buildtemp\sketch\Stylish.pde.cpp.o
                0x20000088                fine_freq1
 .data.noise_gain
                0x2000008c        0x1 D:\projects\arduino\buildtemp\sketch\Stylish.pde.cpp.o
                0x2000008c                noise_gain
 .data.note2_ofs
                0x2000008d        0x1 D:\projects\arduino\buildtemp\sketch\Stylish.pde.cpp.o
                0x2000008d                note2_ofs
 *fill*         0x2000008e        0x2 
 .data.internal_patch_data
                0x20000090      0x190 D:\projects\arduino\buildtemp\sketch\Stylish.pde.cpp.o
                0x20000090                internal_patch_data
 .data.last_key_played
                0x20000220        0x1 D:\projects\arduino\buildtemp\sketch\Stylish.pde.cpp.o
                0x20000220                last_key_played
 .data.last_key_down
                0x20000221        0x1 D:\projects\arduino\buildtemp\sketch\Stylish.pde.cpp.o
                0x20000221                last_key_down
 .data._ZL13encoderLookup
                0x20000222      0x300 D:\projects\arduino\buildtemp\libraries\WS2812B\WS2812B.cpp.o
 .data._ZL5first
                0x20000522        0x1 D:\projects\arduino\buildtemp\libraries\Mozzi-master\mozzi_analog.cpp.o
 .data._ZL15current_channel
                0x20000523        0x1 D:\projects\arduino\buildtemp\libraries\Mozzi-master\mozzi_analog.cpp.o
 .data._ZL1x    0x20000524        0x4 D:\projects\arduino\buildtemp\libraries\Mozzi-master\mozzi_rand.cpp.o
 .data._ZL1y    0x20000528        0x4 D:\projects\arduino\buildtemp\libraries\Mozzi-master\mozzi_rand.cpp.o
 .data._ZL1z    0x2000052c        0x4 D:\projects\arduino\buildtemp\libraries\Mozzi-master\mozzi_rand.cpp.o
 .data._ZN6wirish4privL8pll_dataE
                0x20000530        0x4 D:\projects\arduino\buildtemp\core\wirish\boards_setup.cpp.o
 .data._ZN6wirish4priv9w_adc_smpE
                0x20000534        0x1 D:\projects\arduino\buildtemp\core\wirish\boards_setup.cpp.o
                0x20000534                wirish::priv::w_adc_smp
 *fill*         0x20000535        0x1 
 .data._ZN6wirish4priv9w_adc_preE
                0x20000536        0x2 D:\projects\arduino\buildtemp\core\wirish\boards_setup.cpp.o
                0x20000536                wirish::priv::w_adc_pre
 .data._ZN6wirish4priv15w_board_pll_cfgE
                0x20000538        0x8 D:\projects\arduino\buildtemp\core\wirish\boards_setup.cpp.o
                0x20000538                wirish::priv::w_board_pll_cfg
 .data.adc2     0x20000540        0x8 D:\projects\arduino\buildtemp\core\core.a(adc_f1.c.o)
                0x20000540                adc2
 .data.adc1     0x20000548       0x18 D:\projects\arduino\buildtemp\core\core.a(adc_f1.c.o)
                0x20000548                adc1
 .data.ADC2     0x20000560        0x4 D:\projects\arduino\buildtemp\core\core.a(adc_f1.c.o)
                0x20000560                ADC2
 .data.ADC1     0x20000564        0x4 D:\projects\arduino\buildtemp\core\core.a(adc_f1.c.o)
                0x20000564                ADC1
 .data.dma1     0x20000568       0x40 D:\projects\arduino\buildtemp\core\core.a(dma_f1.c.o)
 .data.DMA1     0x200005a8        0x4 D:\projects\arduino\buildtemp\core\core.a(dma_f1.c.o)
                0x200005a8                DMA1
 .data.gpioa    0x200005ac        0x8 D:\projects\arduino\buildtemp\core\core.a(gpio_f1.c.o)
                0x200005ac                gpioa
 .data.gpiob    0x200005b4        0x8 D:\projects\arduino\buildtemp\core\core.a(gpio_f1.c.o)
                0x200005b4                gpiob
 .data.gpioc    0x200005bc        0x8 D:\projects\arduino\buildtemp\core\core.a(gpio_f1.c.o)
                0x200005bc                gpioc
 .data.gpiod    0x200005c4        0x8 D:\projects\arduino\buildtemp\core\core.a(gpio_f1.c.o)
                0x200005c4                gpiod
 .data.i2c1     0x200005cc       0x24 D:\projects\arduino\buildtemp\core\core.a(i2c_f1.c.o)
 .data.i2c2     0x200005f0       0x24 D:\projects\arduino\buildtemp\core\core.a(i2c_f1.c.o)
 .data.enable_regs.4411
                0x20000614        0xc D:\projects\arduino\buildtemp\core\core.a(rcc_f1.c.o)
 .data.reset_regs.4415
                0x20000620        0x8 D:\projects\arduino\buildtemp\core\core.a(rcc_f1.c.o)
 .data.enable_regs.4424
                0x20000628        0xc D:\projects\arduino\buildtemp\core\core.a(rcc_f1.c.o)
 .data.spi1     0x20000634        0x8 D:\projects\arduino\buildtemp\core\core.a(spi_f1.c.o)
 .data.spi2     0x2000063c        0x8 D:\projects\arduino\buildtemp\core\core.a(spi_f1.c.o)
 .data.SPI1     0x20000644        0x4 D:\projects\arduino\buildtemp\core\core.a(spi_f1.c.o)
                0x20000644                SPI1
 .data.SPI2     0x20000648        0x4 D:\projects\arduino\buildtemp\core\core.a(spi_f1.c.o)
                0x20000648                SPI2
 .data.timer3   0x2000064c       0x24 D:\projects\arduino\buildtemp\core\core.a(timer.c.o)
                0x2000064c                timer3
 .data.timer4   0x20000670       0x24 D:\projects\arduino\buildtemp\core\core.a(timer.c.o)
                0x20000670                timer4
 .data.timer1   0x20000694       0x28 D:\projects\arduino\buildtemp\core\core.a(timer.c.o)
                0x20000694                timer1
 .data.timer2   0x200006bc       0x24 D:\projects\arduino\buildtemp\core\core.a(timer.c.o)
                0x200006bc                timer2
 .data.USART1   0x200006e0        0x4 D:\projects\arduino\buildtemp\core\core.a(usart_f1.c.o)
                0x200006e0                USART1
 .data.USART2   0x200006e4        0x4 D:\projects\arduino\buildtemp\core\core.a(usart_f1.c.o)
                0x200006e4                USART2
 .data.USART3   0x200006e8        0x4 D:\projects\arduino\buildtemp\core\core.a(usart_f1.c.o)
                0x200006e8                USART3
 .data.usart1   0x200006ec       0x94 D:\projects\arduino\buildtemp\core\core.a(usart_f1.c.o)
 .data.usart2   0x20000780       0x94 D:\projects\arduino\buildtemp\core\core.a(usart_f1.c.o)
 .data.usart3   0x20000814       0x94 D:\projects\arduino\buildtemp\core\core.a(usart_f1.c.o)
 .data.USBLIB   0x200008a8        0x4 D:\projects\arduino\buildtemp\core\core.a(usb.c.o)
                0x200008a8                USBLIB
 .data.usblib   0x200008ac       0x10 D:\projects\arduino\buildtemp\core\core.a(usb.c.o)
 .data.Config_Descriptor
                0x200008bc        0x8 D:\projects\arduino\buildtemp\core\core.a(usb_cdcacm.c.o)
 .data.Device_Property
                0x200008c4       0x30 D:\projects\arduino\buildtemp\core\core.a(usb_cdcacm.c.o)
                0x200008c4                Device_Property
 .data.ep_int_in
                0x200008f4       0x1c D:\projects\arduino\buildtemp\core\core.a(usb_cdcacm.c.o)
 .data.String_Descriptor
                0x20000910       0x18 D:\projects\arduino\buildtemp\core\core.a(usb_cdcacm.c.o)
 .data.ep_int_out
                0x20000928       0x1c D:\projects\arduino\buildtemp\core\core.a(usb_cdcacm.c.o)
 .data.line_coding
                0x20000944        0x7 D:\projects\arduino\buildtemp\core\core.a(usb_cdcacm.c.o)
 *fill*         0x2000094b        0x1 
 .data.User_Standard_Requests
                0x2000094c       0x24 D:\projects\arduino\buildtemp\core\core.a(usb_cdcacm.c.o)
                0x2000094c                User_Standard_Requests
 .data.Device_Descriptor
                0x20000970        0x8 D:\projects\arduino\buildtemp\core\core.a(usb_cdcacm.c.o)
 .data.Device_Table
                0x20000978        0x2 D:\projects\arduino\buildtemp\core\core.a(usb_cdcacm.c.o)
                0x20000978                Device_Table
 .data.__fdlib_version
                0x2000097a        0x1 c:/users/softegg/appdata/local/arduino15/packages/arduino/tools/arm-none-eabi-gcc/4.8.3-2014q1/bin/../lib/gcc/arm-none-eabi/4.8.3/../../../../arm-none-eabi/lib/armv7-m\libm.a(lib_a-s_lib_ver.o)
                0x2000097a                __fdlib_version
 *fill*         0x2000097b        0x5 
 .data.impure_data
                0x20000980      0x428 c:/users/softegg/appdata/local/arduino15/packages/arduino/tools/arm-none-eabi-gcc/4.8.3-2014q1/bin/../lib/gcc/arm-none-eabi/4.8.3/../../../../arm-none-eabi/lib/armv7-m\libc.a(lib_a-impure.o)
 .data._impure_ptr
                0x20000da8        0x4 c:/users/softegg/appdata/local/arduino15/packages/arduino/tools/arm-none-eabi-gcc/4.8.3-2014q1/bin/../lib/gcc/arm-none-eabi/4.8.3/../../../../arm-none-eabi/lib/armv7-m\libc.a(lib_a-impure.o)
                0x20000da8                _impure_ptr
 .data.__malloc_av_
                0x20000dac      0x408 c:/users/softegg/appdata/local/arduino15/packages/arduino/tools/arm-none-eabi-gcc/4.8.3-2014q1/bin/../lib/gcc/arm-none-eabi/4.8.3/../../../../arm-none-eabi/lib/armv7-m\libc.a(lib_a-mallocr.o)
                0x20000dac                __malloc_av_
 .data.__malloc_trim_threshold
                0x200011b4        0x4 c:/users/softegg/appdata/local/arduino15/packages/arduino/tools/arm-none-eabi-gcc/4.8.3-2014q1/bin/../lib/gcc/arm-none-eabi/4.8.3/../../../../arm-none-eabi/lib/armv7-m\libc.a(lib_a-mallocr.o)
                0x200011b4                __malloc_trim_threshold
 .data.__malloc_sbrk_base
                0x200011b8        0x4 c:/users/softegg/appdata/local/arduino15/packages/arduino/tools/arm-none-eabi-gcc/4.8.3-2014q1/bin/../lib/gcc/arm-none-eabi/4.8.3/../../../../arm-none-eabi/lib/armv7-m\libc.a(lib_a-mallocr.o)
                0x200011b8                __malloc_sbrk_base
                0x200011c0                . = ALIGN (0x8)
 *fill*         0x200011bc        0x4 
                0x200011c0                __data_end__ = .

.jcr            0x200011c0        0x0 load address 0x080099f0
 .jcr           0x200011c0        0x0 c:/users/softegg/appdata/local/arduino15/packages/arduino/tools/arm-none-eabi-gcc/4.8.3-2014q1/bin/../lib/gcc/arm-none-eabi/4.8.3/armv7-m/crtbegin.o

.igot.plt       0x200011c0        0x0 load address 0x080099f0
 .igot.plt      0x00000000        0x0 c:/users/softegg/appdata/local/arduino15/packages/arduino/tools/arm-none-eabi-gcc/4.8.3-2014q1/bin/../lib/gcc/arm-none-eabi/4.8.3/armv7-m/crtbegin.o

.rodata         0x080099f0      0xff4
 *(.rodata .rodata.* .gnu.linkonce.r.*)
 .rodata._ZL10LFOPitches
                0x080099f0       0x64 D:\projects\arduino\buildtemp\sketch\Stylish.pde.cpp.o
 .rodata._ZL10DecayTimes
                0x08009a54       0x64 D:\projects\arduino\buildtemp\sketch\Stylish.pde.cpp.o
 .rodata._ZL9EnvPitch1
                0x08009ab8       0x64 D:\projects\arduino\buildtemp\sketch\Stylish.pde.cpp.o
 .rodata._ZL9EnvPitch2
                0x08009b1c       0x64 D:\projects\arduino\buildtemp\sketch\Stylish.pde.cpp.o
 .rodata._ZL13LFOFreqencies
                0x08009b80       0x64 D:\projects\arduino\buildtemp\sketch\Stylish.pde.cpp.o
 .rodata._ZL11AttackTimes
                0x08009be4       0x64 D:\projects\arduino\buildtemp\sketch\Stylish.pde.cpp.o
 .rodata.str1.1
                0x08009c48      0x97c D:\projects\arduino\buildtemp\sketch\Stylish.pde.cpp.o
                                0x990 (size before relaxing)
 .rodata.PIN_MAP
                0x0800a5c4      0x230 D:\projects\arduino\buildtemp\core\board.cpp.o
                0x0800a5c4                PIN_MAP
 *fill*         0x0800a7f4        0x4 
 .rodata._ZTV14HardwareSerial
                0x0800a7f8       0x28 D:\projects\arduino\buildtemp\core\core.a(HardwareSerial.cpp.o)
                0x0800a7f8                vtable for HardwareSerial
 .rodata.GPIOC  0x0800a820        0x4 D:\projects\arduino\buildtemp\core\core.a(gpio_f1.c.o)
                0x0800a820                GPIOC
 .rodata.rcc_dev_table
                0x0800a824       0x5c D:\projects\arduino\buildtemp\core\core.a(rcc_f1.c.o)
                0x0800a824                rcc_dev_table
 .rodata.masks.4420
                0x0800a880       0x14 D:\projects\arduino\buildtemp\core\core.a(rcc_f1.c.o)
 .rodata.usbVcomDescriptor_iProduct
                0x0800a894        0xc D:\projects\arduino\buildtemp\core\core.a(usb_cdcacm.c.o)
 .rodata.usbVcomDescriptor_iManufacturer
                0x0800a8a0       0x12 D:\projects\arduino\buildtemp\core\core.a(usb_cdcacm.c.o)
 .rodata.usbVcomDescriptor_Device
                0x0800a8b2       0x12 D:\projects\arduino\buildtemp\core\core.a(usb_cdcacm.c.o)
 .rodata.usbVcomDescriptor_Config
                0x0800a8c4       0x43 D:\projects\arduino\buildtemp\core\core.a(usb_cdcacm.c.o)
 .rodata.usbVcomDescriptor_LangID
                0x0800a907        0x4 D:\projects\arduino\buildtemp\core\core.a(usb_cdcacm.c.o)
 .rodata.str1.1
                0x0800a90b       0x3f D:\projects\arduino\buildtemp\core\core.a(util.c.o)
                                 0x42 (size before relaxing)
 *fill*         0x0800a94a        0x6 
 .rodata._ZTV9USBSerial
                0x0800a950       0x28 D:\projects\arduino\buildtemp\core\core.a(usb_serial.cpp.o)
                0x0800a950                vtable for USBSerial
 .rodata.str1.4
                0x0800a978        0x4 c:/users/softegg/appdata/local/arduino15/packages/arduino/tools/arm-none-eabi-gcc/4.8.3-2014q1/bin/../lib/gcc/arm-none-eabi/4.8.3/../../../../arm-none-eabi/lib/armv7-m\libm.a(lib_a-w_pow.o)
 *fill*         0x0800a97c        0x4 
 .rodata.dp_h   0x0800a980       0x10 c:/users/softegg/appdata/local/arduino15/packages/arduino/tools/arm-none-eabi-gcc/4.8.3-2014q1/bin/../lib/gcc/arm-none-eabi/4.8.3/../../../../arm-none-eabi/lib/armv7-m\libm.a(lib_a-e_pow.o)
 .rodata.dp_l   0x0800a990       0x10 c:/users/softegg/appdata/local/arduino15/packages/arduino/tools/arm-none-eabi-gcc/4.8.3-2014q1/bin/../lib/gcc/arm-none-eabi/4.8.3/../../../../arm-none-eabi/lib/armv7-m\libm.a(lib_a-e_pow.o)
 .rodata.bp     0x0800a9a0       0x10 c:/users/softegg/appdata/local/arduino15/packages/arduino/tools/arm-none-eabi-gcc/4.8.3-2014q1/bin/../lib/gcc/arm-none-eabi/4.8.3/../../../../arm-none-eabi/lib/armv7-m\libm.a(lib_a-e_pow.o)
 .rodata.str1.4
                0x0800a9b0        0x1 c:/users/softegg/appdata/local/arduino15/packages/arduino/tools/arm-none-eabi-gcc/4.8.3-2014q1/bin/../lib/gcc/arm-none-eabi/4.8.3/../../../../arm-none-eabi/lib/armv7-m\libm.a(lib_a-e_pow.o)
                                  0x4 (size before relaxing)
 *fill*         0x0800a9b1        0x7 
 .rodata.TWO52  0x0800a9b8       0x10 c:/users/softegg/appdata/local/arduino15/packages/arduino/tools/arm-none-eabi-gcc/4.8.3-2014q1/bin/../lib/gcc/arm-none-eabi/4.8.3/../../../../arm-none-eabi/lib/armv7-m\libm.a(lib_a-s_rint.o)
 .rodata.str1.4
                0x0800a9c8        0x4 c:/users/softegg/appdata/local/arduino15/packages/arduino/tools/arm-none-eabi-gcc/4.8.3-2014q1/bin/../lib/gcc/arm-none-eabi/4.8.3/../../../../arm-none-eabi/lib/armv7-m\libc.a(lib_a-impure.o)
 .rodata._global_impure_ptr
                0x0800a9cc        0x4 c:/users/softegg/appdata/local/arduino15/packages/arduino/tools/arm-none-eabi-gcc/4.8.3-2014q1/bin/../lib/gcc/arm-none-eabi/4.8.3/../../../../arm-none-eabi/lib/armv7-m\libc.a(lib_a-impure.o)
                0x0800a9cc                _global_impure_ptr
 *(.USER_FLASH)
 .USER_FLASH    0x0800a9d0       0x10 D:\projects\arduino\buildtemp\libraries\SPI\SPI.cpp.o
                0x0800a9e0                . = ALIGN (0x4)
                0x0800a9e0                _lm_rom_img_cfgp = .
                0x0800a9e0        0x4 LONG 0x8008830 LOADADDR (.data)
                0x20001c50                _lm_heap_start = DEFINED (_lm_heap_start)?_lm_heap_start:_end
                0x20005000                _lm_heap_end = DEFINED (_lm_heap_end)?_lm_heap_end:__msp_init

.progmem.data   0x0800a9e4     0x2000
 .progmem.data  0x0800a9e4     0x2000 D:\projects\arduino\buildtemp\sketch\Stylish.pde.cpp.o

.rel.dyn        0x0800c9e4        0x0
 .rel.iplt      0x00000000        0x0 c:/users/softegg/appdata/local/arduino15/packages/arduino/tools/arm-none-eabi-gcc/4.8.3-2014q1/bin/../lib/gcc/arm-none-eabi/4.8.3/armv7-m/crtbegin.o

.bss            0x200011c0      0xa90
                0x200011c0                . = ALIGN (0x8)
                0x200011c0                __bss_start__ = .
 *(.bss .bss.* .gnu.linkonce.b.*)
 .bss           0x200011c0       0x1c c:/users/softegg/appdata/local/arduino15/packages/arduino/tools/arm-none-eabi-gcc/4.8.3-2014q1/bin/../lib/gcc/arm-none-eabi/4.8.3/armv7-m/crtbegin.o
 .bss.env_to_pwm
                0x200011dc        0x1 D:\projects\arduino\buildtemp\sketch\Stylish.pde.cpp.o
                0x200011dc                env_to_pwm
 .bss.noise_max
                0x200011dd        0x1 D:\projects\arduino\buildtemp\sketch\Stylish.pde.cpp.o
                0x200011dd                noise_max
 *fill*         0x200011de        0x2 
 .bss.key_bits  0x200011e0        0x4 D:\projects\arduino\buildtemp\sketch\Stylish.pde.cpp.o
                0x200011e0                key_bits
 .bss.ModeData  0x200011e4       0x1c D:\projects\arduino\buildtemp\sketch\Stylish.pde.cpp.o
                0x200011e4                ModeData
 .bss._ZL9rgb_BLACK
                0x20001200        0x3 D:\projects\arduino\buildtemp\sketch\Stylish.pde.cpp.o
 .bss._ZL9rgb_GREEN
                0x20001203        0x3 D:\projects\arduino\buildtemp\sketch\Stylish.pde.cpp.o
 *fill*         0x20001206        0x2 
 .bss.env_sustain_pitch_sub
                0x20001208        0x4 D:\projects\arduino\buildtemp\sketch\Stylish.pde.cpp.o
                0x20001208                env_sustain_pitch_sub
 .bss._ZL9rgb_WHITE
                0x2000120c        0x3 D:\projects\arduino\buildtemp\sketch\Stylish.pde.cpp.o
 .bss.patch_number
                0x2000120f        0x1 D:\projects\arduino\buildtemp\sketch\Stylish.pde.cpp.o
                0x2000120f                patch_number
 .bss.mode_parameter_number
                0x20001210        0x1 D:\projects\arduino\buildtemp\sketch\Stylish.pde.cpp.o
                0x20001210                mode_parameter_number
 .bss.last_ui_value
                0x20001211        0x1 D:\projects\arduino\buildtemp\sketch\Stylish.pde.cpp.o
                0x20001211                last_ui_value
 .bss.lfo_rising_speed
                0x20001212        0x1 D:\projects\arduino\buildtemp\sketch\Stylish.pde.cpp.o
                0x20001212                lfo_rising_speed
 *fill*         0x20001213        0x1 
 .bss.raw_key_bits
                0x20001214        0x4 D:\projects\arduino\buildtemp\sketch\Stylish.pde.cpp.o
                0x20001214                raw_key_bits
 .bss.FlashAddress
                0x20001218        0x4 D:\projects\arduino\buildtemp\sketch\Stylish.pde.cpp.o
                0x20001218                FlashAddress
 .bss.lfo_to_pwm
                0x2000121c        0x1 D:\projects\arduino\buildtemp\sketch\Stylish.pde.cpp.o
                0x2000121c                lfo_to_pwm
 *fill*         0x2000121d        0x3 
 .bss.osc1_freq
                0x20001220        0x4 D:\projects\arduino\buildtemp\sketch\Stylish.pde.cpp.o
                0x20001220                osc1_freq
 .bss.env_to_filter
                0x20001224        0x2 D:\projects\arduino\buildtemp\sketch\Stylish.pde.cpp.o
                0x20001224                env_to_filter
 .bss.current_mode_button
                0x20001226        0x1 D:\projects\arduino\buildtemp\sketch\Stylish.pde.cpp.o
                0x20001226                current_mode_button
 .bss.env_to_pitch1
                0x20001227        0x1 D:\projects\arduino\buildtemp\sketch\Stylish.pde.cpp.o
                0x20001227                env_to_pitch1
 .bss.env_to_pitch2
                0x20001228        0x1 D:\projects\arduino\buildtemp\sketch\Stylish.pde.cpp.o
                0x20001228                env_to_pitch2
 .bss.state     0x20001229        0x1 D:\projects\arduino\buildtemp\sketch\Stylish.pde.cpp.o
                0x20001229                state
 .bss._ZL8rgb_CYAN
                0x2000122a        0x3 D:\projects\arduino\buildtemp\sketch\Stylish.pde.cpp.o
 .bss.env_to_noise
                0x2000122d        0x1 D:\projects\arduino\buildtemp\sketch\Stylish.pde.cpp.o
                0x2000122d                env_to_noise
 *fill*         0x2000122e        0x2 
 .bss.LocalPatchDataBackup
                0x20001230       0x1c D:\projects\arduino\buildtemp\sketch\Stylish.pde.cpp.o
                0x20001230                LocalPatchDataBackup
 .bss.envelope  0x2000124c       0x6c D:\projects\arduino\buildtemp\sketch\Stylish.pde.cpp.o
                0x2000124c                envelope
 .bss.strip     0x200012b8       0x18 D:\projects\arduino\buildtemp\sketch\Stylish.pde.cpp.o
                0x200012b8                strip
 .bss.lfo_to_pitch
                0x200012d0        0x4 D:\projects\arduino\buildtemp\sketch\Stylish.pde.cpp.o
                0x200012d0                lfo_to_pitch
 .bss.workPixels
                0x200012d4       0x30 D:\projects\arduino\buildtemp\sketch\Stylish.pde.cpp.o
                0x200012d4                workPixels
 .bss.lfo_to_volume
                0x20001304        0x1 D:\projects\arduino\buildtemp\sketch\Stylish.pde.cpp.o
                0x20001304                lfo_to_volume
 .bss.lfo_to_filter
                0x20001305        0x1 D:\projects\arduino\buildtemp\sketch\Stylish.pde.cpp.o
                0x20001305                lfo_to_filter
 .bss.pulse_width
                0x20001306        0x1 D:\projects\arduino\buildtemp\sketch\Stylish.pde.cpp.o
                0x20001306                pulse_width
 .bss._ZL7rgb_RED
                0x20001307        0x3 D:\projects\arduino\buildtemp\sketch\Stylish.pde.cpp.o
 .bss.parameter_number
                0x2000130a        0x1 D:\projects\arduino\buildtemp\sketch\Stylish.pde.cpp.o
                0x2000130a                parameter_number
 .bss.gain      0x2000130b        0x1 D:\projects\arduino\buildtemp\sketch\Stylish.pde.cpp.o
                0x2000130b                gain
 .bss.osc2      0x2000130c        0xc D:\projects\arduino\buildtemp\sketch\Stylish.pde.cpp.o
                0x2000130c                osc2
 .bss.KeyUpCallback
                0x20001318        0x4 D:\projects\arduino\buildtemp\sketch\Stylish.pde.cpp.o
                0x20001318                KeyUpCallback
 .bss.balance   0x2000131c        0x1 D:\projects\arduino\buildtemp\sketch\Stylish.pde.cpp.o
                0x2000131c                balance
 *fill*         0x2000131d        0x3 
 .bss.stable_counter
                0x20001320        0x4 D:\projects\arduino\buildtemp\sketch\Stylish.pde.cpp.o
                0x20001320                stable_counter
 .bss.KeyDownCallback
                0x20001324        0x4 D:\projects\arduino\buildtemp\sketch\Stylish.pde.cpp.o
                0x20001324                KeyDownCallback
 .bss.mode_value
                0x20001328        0x1 D:\projects\arduino\buildtemp\sketch\Stylish.pde.cpp.o
                0x20001328                mode_value
 .bss._ZL10rgb_PURPLE
                0x20001329        0x3 D:\projects\arduino\buildtemp\sketch\Stylish.pde.cpp.o
 .bss.lfo       0x2000132c        0xc D:\projects\arduino\buildtemp\sketch\Stylish.pde.cpp.o
                0x2000132c                lfo
 .bss.counter   0x20001338        0x8 D:\projects\arduino\buildtemp\sketch\Stylish.pde.cpp.o
                0x20001338                counter
 .bss._ZL8rgb_GREY
                0x20001340        0x3 D:\projects\arduino\buildtemp\sketch\Stylish.pde.cpp.o
 *fill*         0x20001343        0x1 
 .bss.osc2_freq
                0x20001344        0x4 D:\projects\arduino\buildtemp\sketch\Stylish.pde.cpp.o
                0x20001344                osc2_freq
 .bss.lfo_pitch_add
                0x20001348        0x4 D:\projects\arduino\buildtemp\sketch\Stylish.pde.cpp.o
                0x20001348                lfo_pitch_add
 .bss.subState  0x2000134c        0x1 D:\projects\arduino\buildtemp\sketch\Stylish.pde.cpp.o
                0x2000134c                subState
 *fill*         0x2000134d        0x3 
 .bss.LocalPatchData
                0x20001350       0x1c D:\projects\arduino\buildtemp\sketch\Stylish.pde.cpp.o
                0x20001350                LocalPatchData
 .bss.filter_f  0x2000136c        0x1 D:\projects\arduino\buildtemp\sketch\Stylish.pde.cpp.o
                0x2000136c                filter_f
 .bss.lfo_to_noise
                0x2000136d        0x1 D:\projects\arduino\buildtemp\sketch\Stylish.pde.cpp.o
                0x2000136d                lfo_to_noise
 .bss._ZL8rgb_BLUE
                0x2000136e        0x3 D:\projects\arduino\buildtemp\sketch\Stylish.pde.cpp.o
 .bss.parameter_value
                0x20001371        0x1 D:\projects\arduino\buildtemp\sketch\Stylish.pde.cpp.o
                0x20001371                parameter_value
 .bss.note_off_processed
                0x20001372        0x1 D:\projects\arduino\buildtemp\sketch\Stylish.pde.cpp.o
                0x20001372                note_off_processed
 *fill*         0x20001373        0x1 
 .bss.osc1      0x20001374        0xc D:\projects\arduino\buildtemp\sketch\Stylish.pde.cpp.o
                0x20001374                osc1
 .bss.lpf       0x20001380       0x10 D:\projects\arduino\buildtemp\sketch\Stylish.pde.cpp.o
                0x20001380                lpf
 .bss.filter_q  0x20001390        0x1 D:\projects\arduino\buildtemp\sketch\Stylish.pde.cpp.o
                0x20001390                filter_q
 .bss._ZL10rgb_YELLOW
                0x20001391        0x3 D:\projects\arduino\buildtemp\sketch\Stylish.pde.cpp.o
 .bss.wTransferSize
                0x20001394        0x4 D:\projects\arduino\buildtemp\sketch\flashwriter.cpp.o
                0x20001394                wTransferSize
 .bss.output_buffer
                0x20001398      0x408 D:\projects\arduino\buildtemp\libraries\Mozzi-master\MozziGuts.cpp.o
                0x20001398                output_buffer
 .bss._ZL22update_control_timeout
                0x200017a0        0x2 D:\projects\arduino\buildtemp\libraries\Mozzi-master\MozziGuts.cpp.o
 *fill*         0x200017a2        0x2 
 .bss.audio_pwm_timer
                0x200017a4        0x4 D:\projects\arduino\buildtemp\libraries\Mozzi-master\MozziGuts.cpp.o
                0x200017a4                audio_pwm_timer
 .bss.adc       0x200017a8       0x10 D:\projects\arduino\buildtemp\libraries\Mozzi-master\MozziGuts.cpp.o
                0x200017a8                adc
 .bss._ZL22update_control_counter
                0x200017b8        0x2 D:\projects\arduino\buildtemp\libraries\Mozzi-master\MozziGuts.cpp.o
 *fill*         0x200017ba        0x2 
 .bss.audio_update_timer
                0x200017bc        0x4 D:\projects\arduino\buildtemp\libraries\Mozzi-master\MozziGuts.cpp.o
                0x200017bc                audio_update_timer
 .bss.stm32_current_adc_pin
                0x200017c0        0x1 D:\projects\arduino\buildtemp\libraries\Mozzi-master\MozziGuts.cpp.o
                0x200017c0                stm32_current_adc_pin
 *fill*         0x200017c1        0x3 
 .bss._ZL15analog_readings
                0x200017c4       0x40 D:\projects\arduino\buildtemp\libraries\Mozzi-master\mozzi_analog.cpp.o
 .bss._ZL20adc_channels_to_read
                0x20001804       0x14 D:\projects\arduino\buildtemp\libraries\Mozzi-master\mozzi_analog.cpp.o
 .bss._ZL10_spi2_this
                0x20001818        0x4 D:\projects\arduino\buildtemp\libraries\SPI\SPI.cpp.o
 .bss._ZL10_spi1_this
                0x2000181c        0x4 D:\projects\arduino\buildtemp\libraries\SPI\SPI.cpp.o
 .bss.SPI       0x20001820       0x4c D:\projects\arduino\buildtemp\libraries\SPI\SPI.cpp.o
                0x20001820                SPI
 .bss.Serial1   0x2000186c       0x18 D:\projects\arduino\buildtemp\core\board.cpp.o
                0x2000186c                Serial1
 .bss.Serial2   0x20001884       0x18 D:\projects\arduino\buildtemp\core\board.cpp.o
                0x20001884                Serial2
 .bss.Serial3   0x2000189c       0x18 D:\projects\arduino\buildtemp\core\board.cpp.o
                0x2000189c                Serial3
 .bss.pbreak.4444
                0x200018b4        0x4 D:\projects\arduino\buildtemp\core\wirish\syscalls.c.o
 .bss.Timer1    0x200018b8        0x4 D:\projects\arduino\buildtemp\core\core.a(HardwareTimer.cpp.o)
                0x200018b8                Timer1
 .bss.Timer2    0x200018bc        0x4 D:\projects\arduino\buildtemp\core\core.a(HardwareTimer.cpp.o)
                0x200018bc                Timer2
 .bss.Timer3    0x200018c0        0x4 D:\projects\arduino\buildtemp\core\core.a(HardwareTimer.cpp.o)
                0x200018c0                Timer3
 .bss.Timer4    0x200018c4        0x4 D:\projects\arduino\buildtemp\core\core.a(HardwareTimer.cpp.o)
                0x200018c4                Timer4
 .bss._ZL7this_id
                0x200018c8        0x1 D:\projects\arduino\buildtemp\core\core.a(HardwareTimer.cpp.o)
 *fill*         0x200018c9        0x3 
 .bss._ZL9this_devp
                0x200018cc        0x4 D:\projects\arduino\buildtemp\core\core.a(HardwareTimer.cpp.o)
 .bss.exti_channels
                0x200018d0       0x80 D:\projects\arduino\buildtemp\core\core.a(exti.c.o)
 .bss.systick_user_callback
                0x20001950        0x4 D:\projects\arduino\buildtemp\core\core.a(systick.c.o)
 .bss.usart1_wb
                0x20001954        0xc D:\projects\arduino\buildtemp\core\core.a(usart_f1.c.o)
 .bss.usart1_rb
                0x20001960        0xc D:\projects\arduino\buildtemp\core\core.a(usart_f1.c.o)
 .bss.usart2_rb
                0x2000196c        0xc D:\projects\arduino\buildtemp\core\core.a(usart_f1.c.o)
 .bss.usart3_rb
                0x20001978        0xc D:\projects\arduino\buildtemp\core\core.a(usart_f1.c.o)
 .bss.usart2_wb
                0x20001984        0xc D:\projects\arduino\buildtemp\core\core.a(usart_f1.c.o)
 .bss.usart3_wb
                0x20001990        0xc D:\projects\arduino\buildtemp\core\core.a(usart_f1.c.o)
 .bss.line_dtr_rts
                0x2000199c        0x1 D:\projects\arduino\buildtemp\core\core.a(usb_cdcacm.c.o)
 .bss.vcomBufferTx
                0x2000199d      0x100 D:\projects\arduino\buildtemp\core\core.a(usb_cdcacm.c.o)
 *fill*         0x20001a9d        0x3 
 .bss.tx_head   0x20001aa0        0x4 D:\projects\arduino\buildtemp\core\core.a(usb_cdcacm.c.o)
 .bss.rx_hook   0x20001aa4        0x4 D:\projects\arduino\buildtemp\core\core.a(usb_cdcacm.c.o)
 .bss.vcomBufferRx
                0x20001aa8      0x100 D:\projects\arduino\buildtemp\core\core.a(usb_cdcacm.c.o)
 .bss.transmitting
                0x20001ba8        0x1 D:\projects\arduino\buildtemp\core\core.a(usb_cdcacm.c.o)
 *fill*         0x20001ba9        0x3 
 .bss.rx_tail   0x20001bac        0x4 D:\projects\arduino\buildtemp\core\core.a(usb_cdcacm.c.o)
 .bss.iface_setup_hook
                0x20001bb0        0x4 D:\projects\arduino\buildtemp\core\core.a(usb_cdcacm.c.o)
 .bss.rx_head   0x20001bb4        0x4 D:\projects\arduino\buildtemp\core\core.a(usb_cdcacm.c.o)
 .bss.tx_tail   0x20001bb8        0x4 D:\projects\arduino\buildtemp\core\core.a(usb_cdcacm.c.o)
 .bss.Data_Mul_MaxPacketSize
                0x20001bbc        0x1 D:\projects\arduino\buildtemp\core\core.a(usb_core.c.o)
                0x20001bbc                Data_Mul_MaxPacketSize
 .bss._ZN9USBSerial9_hasBegunE
                0x20001bbd        0x1 D:\projects\arduino\buildtemp\core\core.a(usb_serial.cpp.o)
                0x20001bbd                USBSerial::_hasBegun
 *fill*         0x20001bbe        0x2 
 .bss.Serial    0x20001bc0       0x10 D:\projects\arduino\buildtemp\core\core.a(usb_serial.cpp.o)
                0x20001bc0                Serial
 .bss._ZL11reset_state
                0x20001bd0        0x1 D:\projects\arduino\buildtemp\core\core.a(usb_serial.cpp.o)
 *fill*         0x20001bd1        0x3 
 .bss.__malloc_max_total_mem
                0x20001bd4        0x4 c:/users/softegg/appdata/local/arduino15/packages/arduino/tools/arm-none-eabi-gcc/4.8.3-2014q1/bin/../lib/gcc/arm-none-eabi/4.8.3/../../../../arm-none-eabi/lib/armv7-m\libc.a(lib_a-mallocr.o)
                0x20001bd4                __malloc_max_total_mem
 .bss.__malloc_max_sbrked_mem
                0x20001bd8        0x4 c:/users/softegg/appdata/local/arduino15/packages/arduino/tools/arm-none-eabi-gcc/4.8.3-2014q1/bin/../lib/gcc/arm-none-eabi/4.8.3/../../../../arm-none-eabi/lib/armv7-m\libc.a(lib_a-mallocr.o)
                0x20001bd8                __malloc_max_sbrked_mem
 .bss.__malloc_top_pad
                0x20001bdc        0x4 c:/users/softegg/appdata/local/arduino15/packages/arduino/tools/arm-none-eabi-gcc/4.8.3-2014q1/bin/../lib/gcc/arm-none-eabi/4.8.3/../../../../arm-none-eabi/lib/armv7-m\libc.a(lib_a-mallocr.o)
                0x20001bdc                __malloc_top_pad
 .bss.__malloc_current_mallinfo
                0x20001be0       0x28 c:/users/softegg/appdata/local/arduino15/packages/arduino/tools/arm-none-eabi-gcc/4.8.3-2014q1/bin/../lib/gcc/arm-none-eabi/4.8.3/../../../../arm-none-eabi/lib/armv7-m\libc.a(lib_a-mallocr.o)
                0x20001be0                __malloc_current_mallinfo
 *(COMMON)
 COMMON         0x20001c08        0x4 D:\projects\arduino\buildtemp\core\core.a(systick.c.o)
                0x20001c08                systick_uptime_millis
 COMMON         0x20001c0c        0x6 D:\projects\arduino\buildtemp\core\core.a(usb.c.o)
                0x20001c0c                SaveRState
                0x20001c0e                SaveTState
                0x20001c10                ResumeS
 COMMON         0x20001c12        0x2 D:\projects\arduino\buildtemp\core\core.a(usb_core.c.o)
                0x20001c12                StatusInfo
 COMMON         0x20001c14       0x32 D:\projects\arduino\buildtemp\core\core.a(usb_init.c.o)
                0x20001c14                SaveState
                0x20001c18                pProperty
                0x20001c1c                EPindex
                0x20001c20                Device_Info
                0x20001c3c                pUser_Standard_Requests
                0x20001c40                pInformation
                0x20001c44                wInterrupt_Mask
 *fill*         0x20001c46        0x2 
 COMMON         0x20001c48        0x4 c:/users/softegg/appdata/local/arduino15/packages/arduino/tools/arm-none-eabi-gcc/4.8.3-2014q1/bin/../lib/gcc/arm-none-eabi/4.8.3/../../../../arm-none-eabi/lib/armv7-m\libc.a(lib_a-reent.o)
                0x20001c48                errno
                0x20001c50                . = ALIGN (0x8)
 *fill*         0x20001c4c        0x4 
                0x20001c50                __bss_end__ = .
                0x20001c50                _end = __bss_end__

.stab
 *(.stab)

.stabstr
 *(.stabstr)

.debug
 *(.debug)

.line
 *(.line)

.debug_srcinfo
 *(.debug_srcinfo)

.debug_sfnames
 *(.debug_sfnames)

.debug_aranges  0x00000000     0x1878
 *(.debug_aranges)
 .debug_aranges
                0x00000000      0x1b0 D:\projects\arduino\buildtemp\sketch\Stylish.pde.cpp.o
 .debug_aranges
                0x000001b0       0x60 D:\projects\arduino\buildtemp\sketch\flashwriter.cpp.o
 .debug_aranges
                0x00000210       0x58 D:\projects\arduino\buildtemp\sketch\rgb.cpp.o
 .debug_aranges
                0x00000268       0x80 D:\projects\arduino\buildtemp\libraries\WS2812B\WS2812B.cpp.o
 .debug_aranges
                0x000002e8       0x50 D:\projects\arduino\buildtemp\libraries\Mozzi-master\MozziGuts.cpp.o
 .debug_aranges
                0x00000338       0x90 D:\projects\arduino\buildtemp\libraries\Mozzi-master\mozzi_analog.cpp.o
 .debug_aranges
                0x000003c8       0x50 D:\projects\arduino\buildtemp\libraries\Mozzi-master\mozzi_fixmath.cpp.o
 .debug_aranges
                0x00000418       0x38 D:\projects\arduino\buildtemp\libraries\Mozzi-master\mozzi_midi.cpp.o
 .debug_aranges
                0x00000450       0x80 D:\projects\arduino\buildtemp\libraries\Mozzi-master\mozzi_rand.cpp.o
 .debug_aranges
                0x000004d0       0x28 D:\projects\arduino\buildtemp\libraries\Mozzi-master\mozzi_utils.cpp.o
 .debug_aranges
                0x000004f8       0x18 D:\projects\arduino\buildtemp\libraries\Mozzi-master\twi_nonblock.cpp.o
 .debug_aranges
                0x00000510      0x188 D:\projects\arduino\buildtemp\libraries\SPI\SPI.cpp.o
 .debug_aranges
                0x00000698       0xc0 D:\projects\arduino\buildtemp\libraries\STM32ADC\STM32ADC.cpp.o
 .debug_aranges
                0x00000758       0x88 D:\projects\arduino\buildtemp\libraries\STM32ADC\utility\util_adc.c.o
 .debug_aranges
                0x000007e0       0x28 D:\projects\arduino\buildtemp\core\board.cpp.o
 .debug_aranges
                0x00000808       0x40 D:\projects\arduino\buildtemp\core\wirish\boards.cpp.o
 .debug_aranges
                0x00000848       0x40 D:\projects\arduino\buildtemp\core\wirish\boards_setup.cpp.o
 .debug_aranges
                0x00000888       0x20 D:\projects\arduino\buildtemp\core\wirish\start.S.o
 .debug_aranges
                0x000008a8       0x20 D:\projects\arduino\buildtemp\core\wirish\start_c.c.o
 .debug_aranges
                0x000008c8       0x88 D:\projects\arduino\buildtemp\core\wirish\syscalls.c.o
 .debug_aranges
                0x00000950       0x70 D:\projects\arduino\buildtemp\core\core.a(HardwareSerial.cpp.o)
 .debug_aranges
                0x000009c0       0xc0 D:\projects\arduino\buildtemp\core\core.a(HardwareTimer.cpp.o)
 .debug_aranges
                0x00000a80      0x120 D:\projects\arduino\buildtemp\core\core.a(Print.cpp.o)
 .debug_aranges
                0x00000ba0       0x20 D:\projects\arduino\buildtemp\core\core.a(cxxabi-compat.cpp.o)
 .debug_aranges
                0x00000bc0       0x38 D:\projects\arduino\buildtemp\core\core.a(adc.c.o)
 .debug_aranges
                0x00000bf8       0x58 D:\projects\arduino\buildtemp\core\core.a(adc_f1.c.o)
 .debug_aranges
                0x00000c50       0x28 D:\projects\arduino\buildtemp\core\core.a(dma.c.o)
 .debug_aranges
                0x00000c78       0xa8 D:\projects\arduino\buildtemp\core\core.a(dma_f1.c.o)
 .debug_aranges
                0x00000d20       0x20 D:\projects\arduino\buildtemp\core\core.a(exc.S.o)
 .debug_aranges
                0x00000d40       0x70 D:\projects\arduino\buildtemp\core\core.a(exti.c.o)
 .debug_aranges
                0x00000db0       0x20 D:\projects\arduino\buildtemp\core\core.a(exti_f1.c.o)
 .debug_aranges
                0x00000dd0       0x20 D:\projects\arduino\buildtemp\core\core.a(flash.c.o)
 .debug_aranges
                0x00000df0       0x40 D:\projects\arduino\buildtemp\core\core.a(gpio_f1.c.o)
 .debug_aranges
                0x00000e30       0x50 D:\projects\arduino\buildtemp\core\core.a(i2c_f1.c.o)
 .debug_aranges
                0x00000e80       0x38 D:\projects\arduino\buildtemp\core\core.a(nvic.c.o)
 .debug_aranges
                0x00000eb8       0x48 D:\projects\arduino\buildtemp\core\core.a(rcc.c.o)
 .debug_aranges
                0x00000f00       0x48 D:\projects\arduino\buildtemp\core\core.a(rcc_f1.c.o)
 .debug_aranges
                0x00000f48       0x78 D:\projects\arduino\buildtemp\core\core.a(spi.c.o)
 .debug_aranges
                0x00000fc0       0x28 D:\projects\arduino\buildtemp\core\core.a(spi_f1.c.o)
 .debug_aranges
                0x00000fe8       0x20 D:\projects\arduino\buildtemp\core\core.a(isrs.S.o)
 .debug_aranges
                0x00001008       0x40 D:\projects\arduino\buildtemp\core\core.a(systick.c.o)
 .debug_aranges
                0x00001048       0xa8 D:\projects\arduino\buildtemp\core\core.a(timer.c.o)
 .debug_aranges
                0x000010f0       0x48 D:\projects\arduino\buildtemp\core\core.a(usart.c.o)
 .debug_aranges
                0x00001138       0x58 D:\projects\arduino\buildtemp\core\core.a(usart_f1.c.o)
 .debug_aranges
                0x00001190       0x20 D:\projects\arduino\buildtemp\core\core.a(usart_private.c.o)
 .debug_aranges
                0x000011b0       0x38 D:\projects\arduino\buildtemp\core\core.a(usb.c.o)
 .debug_aranges
                0x000011e8      0x128 D:\projects\arduino\buildtemp\core\core.a(usb_cdcacm.c.o)
 .debug_aranges
                0x00001310       0x20 D:\projects\arduino\buildtemp\core\core.a(usb_reg_map.c.o)
 .debug_aranges
                0x00001330       0x98 D:\projects\arduino\buildtemp\core\core.a(usb_core.c.o)
 .debug_aranges
                0x000013c8       0x20 D:\projects\arduino\buildtemp\core\core.a(usb_init.c.o)
 .debug_aranges
                0x000013e8       0x28 D:\projects\arduino\buildtemp\core\core.a(usb_mem.c.o)
 .debug_aranges
                0x00001410      0x1f0 D:\projects\arduino\buildtemp\core\core.a(usb_regs.c.o)
 .debug_aranges
                0x00001600       0x50 D:\projects\arduino\buildtemp\core\core.a(util.c.o)
 .debug_aranges
                0x00001650       0x28 D:\projects\arduino\buildtemp\core\core.a(main.cpp.o)
 .debug_aranges
                0x00001678       0x28 D:\projects\arduino\buildtemp\core\core.a(pwm.cpp.o)
 .debug_aranges
                0x000016a0       0x20 D:\projects\arduino\buildtemp\core\core.a(wirish_digital_f1.cpp.o)
 .debug_aranges
                0x000016c0       0xd0 D:\projects\arduino\buildtemp\core\core.a(usb_serial.cpp.o)
 .debug_aranges
                0x00001790       0x28 D:\projects\arduino\buildtemp\core\core.a(wirish_digital.cpp.o)
 .debug_aranges
                0x000017b8       0x40 D:\projects\arduino\buildtemp\core\core.a(bkp_f1.c.o)
 .debug_aranges
                0x000017f8       0x20 D:\projects\arduino\buildtemp\core\core.a(gpio.c.o)
 .debug_aranges
                0x00001818       0x60 D:\projects\arduino\buildtemp\core\core.a(i2c.c.o)

.debug_pubnames
 *(.debug_pubnames)

.debug_info     0x00000000    0x34861
 *(.debug_info .gnu.linkonce.wi.*)
 .debug_info    0x00000000     0x509e D:\projects\arduino\buildtemp\sketch\Stylish.pde.cpp.o
 .debug_info    0x0000509e      0x49a D:\projects\arduino\buildtemp\sketch\flashwriter.cpp.o
 .debug_info    0x00005538      0x584 D:\projects\arduino\buildtemp\sketch\rgb.cpp.o
 .debug_info    0x00005abc     0x17d9 D:\projects\arduino\buildtemp\libraries\WS2812B\WS2812B.cpp.o
 .debug_info    0x00007295     0x1d2a D:\projects\arduino\buildtemp\libraries\Mozzi-master\MozziGuts.cpp.o
 .debug_info    0x00008fbf      0xee0 D:\projects\arduino\buildtemp\libraries\Mozzi-master\mozzi_analog.cpp.o
 .debug_info    0x00009e9f      0x3c7 D:\projects\arduino\buildtemp\libraries\Mozzi-master\mozzi_fixmath.cpp.o
 .debug_info    0x0000a266      0x345 D:\projects\arduino\buildtemp\libraries\Mozzi-master\mozzi_midi.cpp.o
 .debug_info    0x0000a5ab      0xd4d D:\projects\arduino\buildtemp\libraries\Mozzi-master\mozzi_rand.cpp.o
 .debug_info    0x0000b2f8      0x1af D:\projects\arduino\buildtemp\libraries\Mozzi-master\mozzi_utils.cpp.o
 .debug_info    0x0000b4a7      0x11a D:\projects\arduino\buildtemp\libraries\Mozzi-master\twi_nonblock.cpp.o
 .debug_info    0x0000b5c1     0x36a2 D:\projects\arduino\buildtemp\libraries\SPI\SPI.cpp.o
 .debug_info    0x0000ec63     0x197e D:\projects\arduino\buildtemp\libraries\STM32ADC\STM32ADC.cpp.o
 .debug_info    0x000105e1      0xc5d D:\projects\arduino\buildtemp\libraries\STM32ADC\utility\util_adc.c.o
 .debug_info    0x0001123e      0xf2e D:\projects\arduino\buildtemp\core\board.cpp.o
 .debug_info    0x0001216c     0x142d D:\projects\arduino\buildtemp\core\wirish\boards.cpp.o
 .debug_info    0x00013599     0x10c5 D:\projects\arduino\buildtemp\core\wirish\boards_setup.cpp.o
 .debug_info    0x0001465e       0xa4 D:\projects\arduino\buildtemp\core\wirish\start.S.o
 .debug_info    0x00014702      0x176 D:\projects\arduino\buildtemp\core\wirish\start_c.c.o
 .debug_info    0x00014878      0x5cd D:\projects\arduino\buildtemp\core\wirish\syscalls.c.o
 .debug_info    0x00014e45     0x29ea D:\projects\arduino\buildtemp\core\core.a(HardwareSerial.cpp.o)
 .debug_info    0x0001782f     0x1cbe D:\projects\arduino\buildtemp\core\core.a(HardwareTimer.cpp.o)
 .debug_info    0x000194ed     0x29b0 D:\projects\arduino\buildtemp\core\core.a(Print.cpp.o)
 .debug_info    0x0001be9d       0x33 D:\projects\arduino\buildtemp\core\core.a(cxxabi-compat.cpp.o)
 .debug_info    0x0001bed0      0x79a D:\projects\arduino\buildtemp\core\core.a(adc.c.o)
 .debug_info    0x0001c66a      0xe4a D:\projects\arduino\buildtemp\core\core.a(adc_f1.c.o)
 .debug_info    0x0001d4b4      0x6f7 D:\projects\arduino\buildtemp\core\core.a(dma.c.o)
 .debug_info    0x0001dbab     0x19f2 D:\projects\arduino\buildtemp\core\core.a(dma_f1.c.o)
 .debug_info    0x0001f59d       0x94 D:\projects\arduino\buildtemp\core\core.a(exc.S.o)
 .debug_info    0x0001f631      0xedd D:\projects\arduino\buildtemp\core\core.a(exti.c.o)
 .debug_info    0x0002050e      0x213 D:\projects\arduino\buildtemp\core\core.a(exti_f1.c.o)
 .debug_info    0x00020721      0x128 D:\projects\arduino\buildtemp\core\core.a(flash.c.o)
 .debug_info    0x00020849      0x6d6 D:\projects\arduino\buildtemp\core\core.a(gpio_f1.c.o)
 .debug_info    0x00020f1f      0xbd5 D:\projects\arduino\buildtemp\core\core.a(i2c_f1.c.o)
 .debug_info    0x00021af4      0x5a2 D:\projects\arduino\buildtemp\core\core.a(nvic.c.o)
 .debug_info    0x00022096      0x556 D:\projects\arduino\buildtemp\core\core.a(rcc.c.o)
 .debug_info    0x000225ec      0xb64 D:\projects\arduino\buildtemp\core\core.a(rcc_f1.c.o)
 .debug_info    0x00023150      0xa88 D:\projects\arduino\buildtemp\core\core.a(spi.c.o)
 .debug_info    0x00023bd8      0x794 D:\projects\arduino\buildtemp\core\core.a(spi_f1.c.o)
 .debug_info    0x0002436c       0xa9 D:\projects\arduino\buildtemp\core\core.a(isrs.S.o)
 .debug_info    0x00024415      0x182 D:\projects\arduino\buildtemp\core\core.a(systick.c.o)
 .debug_info    0x00024597     0x1b6f D:\projects\arduino\buildtemp\core\core.a(timer.c.o)
 .debug_info    0x00026106      0xc32 D:\projects\arduino\buildtemp\core\core.a(usart.c.o)
 .debug_info    0x00026d38      0xbc4 D:\projects\arduino\buildtemp\core\core.a(usart_f1.c.o)
 .debug_info    0x000278fc      0x595 D:\projects\arduino\buildtemp\core\core.a(usart_private.c.o)
 .debug_info    0x00027e91      0xd16 D:\projects\arduino\buildtemp\core\core.a(usb.c.o)
 .debug_info    0x00028ba7     0x22d2 D:\projects\arduino\buildtemp\core\core.a(usb_cdcacm.c.o)
 .debug_info    0x0002ae79      0x26c D:\projects\arduino\buildtemp\core\core.a(usb_reg_map.c.o)
 .debug_info    0x0002b0e5      0xddf D:\projects\arduino\buildtemp\core\core.a(usb_core.c.o)
 .debug_info    0x0002bec4      0x3ed D:\projects\arduino\buildtemp\core\core.a(usb_init.c.o)
 .debug_info    0x0002c2b1      0x17b D:\projects\arduino\buildtemp\core\core.a(usb_mem.c.o)
 .debug_info    0x0002c42c      0xc88 D:\projects\arduino\buildtemp\core\core.a(usb_regs.c.o)
 .debug_info    0x0002d0b4      0xad2 D:\projects\arduino\buildtemp\core\core.a(util.c.o)
 .debug_info    0x0002db86       0x99 D:\projects\arduino\buildtemp\core\core.a(main.cpp.o)
 .debug_info    0x0002dc1f      0xbc0 D:\projects\arduino\buildtemp\core\core.a(pwm.cpp.o)
 .debug_info    0x0002e7df      0xc8a D:\projects\arduino\buildtemp\core\core.a(wirish_digital_f1.cpp.o)
 .debug_info    0x0002f469     0x2b06 D:\projects\arduino\buildtemp\core\core.a(usb_serial.cpp.o)
 .debug_info    0x00031f6f      0xb0b D:\projects\arduino\buildtemp\core\core.a(wirish_digital.cpp.o)
 .debug_info    0x00032a7a      0x4ca D:\projects\arduino\buildtemp\core\core.a(bkp_f1.c.o)
 .debug_info    0x00032f44      0x313 D:\projects\arduino\buildtemp\core\core.a(gpio.c.o)
 .debug_info    0x00033257     0x160a D:\projects\arduino\buildtemp\core\core.a(i2c.c.o)

.debug_abbrev   0x00000000     0x94be
 *(.debug_abbrev)
 .debug_abbrev  0x00000000      0x8a2 D:\projects\arduino\buildtemp\sketch\Stylish.pde.cpp.o
 .debug_abbrev  0x000008a2      0x1b3 D:\projects\arduino\buildtemp\sketch\flashwriter.cpp.o
 .debug_abbrev  0x00000a55      0x1a2 D:\projects\arduino\buildtemp\sketch\rgb.cpp.o
 .debug_abbrev  0x00000bf7      0x426 D:\projects\arduino\buildtemp\libraries\WS2812B\WS2812B.cpp.o
 .debug_abbrev  0x0000101d      0x4e3 D:\projects\arduino\buildtemp\libraries\Mozzi-master\MozziGuts.cpp.o
 .debug_abbrev  0x00001500      0x3c0 D:\projects\arduino\buildtemp\libraries\Mozzi-master\mozzi_analog.cpp.o
 .debug_abbrev  0x000018c0      0x14f D:\projects\arduino\buildtemp\libraries\Mozzi-master\mozzi_fixmath.cpp.o
 .debug_abbrev  0x00001a0f      0x177 D:\projects\arduino\buildtemp\libraries\Mozzi-master\mozzi_midi.cpp.o
 .debug_abbrev  0x00001b86      0x272 D:\projects\arduino\buildtemp\libraries\Mozzi-master\mozzi_rand.cpp.o
 .debug_abbrev  0x00001df8       0xcd D:\projects\arduino\buildtemp\libraries\Mozzi-master\mozzi_utils.cpp.o
 .debug_abbrev  0x00001ec5       0x77 D:\projects\arduino\buildtemp\libraries\Mozzi-master\twi_nonblock.cpp.o
 .debug_abbrev  0x00001f3c      0x69d D:\projects\arduino\buildtemp\libraries\SPI\SPI.cpp.o
 .debug_abbrev  0x000025d9      0x371 D:\projects\arduino\buildtemp\libraries\STM32ADC\STM32ADC.cpp.o
 .debug_abbrev  0x0000294a      0x26c D:\projects\arduino\buildtemp\libraries\STM32ADC\utility\util_adc.c.o
 .debug_abbrev  0x00002bb6      0x1ea D:\projects\arduino\buildtemp\core\board.cpp.o
 .debug_abbrev  0x00002da0      0x3dd D:\projects\arduino\buildtemp\core\wirish\boards.cpp.o
 .debug_abbrev  0x0000317d      0x2af D:\projects\arduino\buildtemp\core\wirish\boards_setup.cpp.o
 .debug_abbrev  0x0000342c       0x14 D:\projects\arduino\buildtemp\core\wirish\start.S.o
 .debug_abbrev  0x00003440      0x11f D:\projects\arduino\buildtemp\core\wirish\start_c.c.o
 .debug_abbrev  0x0000355f      0x17e D:\projects\arduino\buildtemp\core\wirish\syscalls.c.o
 .debug_abbrev  0x000036dd      0x535 D:\projects\arduino\buildtemp\core\core.a(HardwareSerial.cpp.o)
 .debug_abbrev  0x00003c12      0x452 D:\projects\arduino\buildtemp\core\core.a(HardwareTimer.cpp.o)
 .debug_abbrev  0x00004064      0x521 D:\projects\arduino\buildtemp\core\core.a(Print.cpp.o)
 .debug_abbrev  0x00004585       0x28 D:\projects\arduino\buildtemp\core\core.a(cxxabi-compat.cpp.o)
 .debug_abbrev  0x000045ad      0x20b D:\projects\arduino\buildtemp\core\core.a(adc.c.o)
 .debug_abbrev  0x000047b8      0x2e6 D:\projects\arduino\buildtemp\core\core.a(adc_f1.c.o)
 .debug_abbrev  0x00004a9e      0x182 D:\projects\arduino\buildtemp\core\core.a(dma.c.o)
 .debug_abbrev  0x00004c20      0x3dd D:\projects\arduino\buildtemp\core\core.a(dma_f1.c.o)
 .debug_abbrev  0x00004ffd       0x14 D:\projects\arduino\buildtemp\core\core.a(exc.S.o)
 .debug_abbrev  0x00005011      0x2a5 D:\projects\arduino\buildtemp\core\core.a(exti.c.o)
 .debug_abbrev  0x000052b6       0xdb D:\projects\arduino\buildtemp\core\core.a(exti_f1.c.o)
 .debug_abbrev  0x00005391       0x9f D:\projects\arduino\buildtemp\core\core.a(flash.c.o)
 .debug_abbrev  0x00005430      0x191 D:\projects\arduino\buildtemp\core\core.a(gpio_f1.c.o)
 .debug_abbrev  0x000055c1      0x202 D:\projects\arduino\buildtemp\core\core.a(i2c_f1.c.o)
 .debug_abbrev  0x000057c3      0x1ac D:\projects\arduino\buildtemp\core\core.a(nvic.c.o)
 .debug_abbrev  0x0000596f      0x17f D:\projects\arduino\buildtemp\core\core.a(rcc.c.o)
 .debug_abbrev  0x00005aee      0x28c D:\projects\arduino\buildtemp\core\core.a(rcc_f1.c.o)
 .debug_abbrev  0x00005d7a      0x2ad D:\projects\arduino\buildtemp\core\core.a(spi.c.o)
 .debug_abbrev  0x00006027      0x152 D:\projects\arduino\buildtemp\core\core.a(spi_f1.c.o)
 .debug_abbrev  0x00006179       0x14 D:\projects\arduino\buildtemp\core\core.a(isrs.S.o)
 .debug_abbrev  0x0000618d      0x10f D:\projects\arduino\buildtemp\core\core.a(systick.c.o)
 .debug_abbrev  0x0000629c      0x474 D:\projects\arduino\buildtemp\core\core.a(timer.c.o)
 .debug_abbrev  0x00006710      0x2ff D:\projects\arduino\buildtemp\core\core.a(usart.c.o)
 .debug_abbrev  0x00006a0f      0x292 D:\projects\arduino\buildtemp\core\core.a(usart_f1.c.o)
 .debug_abbrev  0x00006ca1      0x144 D:\projects\arduino\buildtemp\core\core.a(usart_private.c.o)
 .debug_abbrev  0x00006de5      0x352 D:\projects\arduino\buildtemp\core\core.a(usb.c.o)
 .debug_abbrev  0x00007137      0x47d D:\projects\arduino\buildtemp\core\core.a(usb_cdcacm.c.o)
 .debug_abbrev  0x000075b4      0x193 D:\projects\arduino\buildtemp\core\core.a(usb_reg_map.c.o)
 .debug_abbrev  0x00007747      0x3a6 D:\projects\arduino\buildtemp\core\core.a(usb_core.c.o)
 .debug_abbrev  0x00007aed      0x101 D:\projects\arduino\buildtemp\core\core.a(usb_init.c.o)
 .debug_abbrev  0x00007bee       0x90 D:\projects\arduino\buildtemp\core\core.a(usb_mem.c.o)
 .debug_abbrev  0x00007c7e      0x1f3 D:\projects\arduino\buildtemp\core\core.a(usb_regs.c.o)
 .debug_abbrev  0x00007e71      0x2c9 D:\projects\arduino\buildtemp\core\core.a(util.c.o)
 .debug_abbrev  0x0000813a       0x7b D:\projects\arduino\buildtemp\core\core.a(main.cpp.o)
 .debug_abbrev  0x000081b5      0x20f D:\projects\arduino\buildtemp\core\core.a(pwm.cpp.o)
 .debug_abbrev  0x000083c4      0x240 D:\projects\arduino\buildtemp\core\core.a(wirish_digital_f1.cpp.o)
 .debug_abbrev  0x00008604      0x665 D:\projects\arduino\buildtemp\core\core.a(usb_serial.cpp.o)
 .debug_abbrev  0x00008c69      0x17e D:\projects\arduino\buildtemp\core\core.a(wirish_digital.cpp.o)
 .debug_abbrev  0x00008de7      0x1c4 D:\projects\arduino\buildtemp\core\core.a(bkp_f1.c.o)
 .debug_abbrev  0x00008fab      0x113 D:\projects\arduino\buildtemp\core\core.a(gpio.c.o)
 .debug_abbrev  0x000090be      0x400 D:\projects\arduino\buildtemp\core\core.a(i2c.c.o)

.debug_line     0x00000000     0xedc5
 *(.debug_line)
 .debug_line    0x00000000     0x1080 D:\projects\arduino\buildtemp\sketch\Stylish.pde.cpp.o
 .debug_line    0x00001080      0x341 D:\projects\arduino\buildtemp\sketch\flashwriter.cpp.o
 .debug_line    0x000013c1      0x31a D:\projects\arduino\buildtemp\sketch\rgb.cpp.o
 .debug_line    0x000016db      0x600 D:\projects\arduino\buildtemp\libraries\WS2812B\WS2812B.cpp.o
 .debug_line    0x00001cdb      0x5b1 D:\projects\arduino\buildtemp\libraries\Mozzi-master\MozziGuts.cpp.o
 .debug_line    0x0000228c      0x4ac D:\projects\arduino\buildtemp\libraries\Mozzi-master\mozzi_analog.cpp.o
 .debug_line    0x00002738      0x32f D:\projects\arduino\buildtemp\libraries\Mozzi-master\mozzi_fixmath.cpp.o
 .debug_line    0x00002a67      0x33d D:\projects\arduino\buildtemp\libraries\Mozzi-master\mozzi_midi.cpp.o
 .debug_line    0x00002da4      0x43d D:\projects\arduino\buildtemp\libraries\Mozzi-master\mozzi_rand.cpp.o
 .debug_line    0x000031e1      0x27a D:\projects\arduino\buildtemp\libraries\Mozzi-master\mozzi_utils.cpp.o
 .debug_line    0x0000345b      0x20a D:\projects\arduino\buildtemp\libraries\Mozzi-master\twi_nonblock.cpp.o
 .debug_line    0x00003665        0x0 D:\projects\arduino\buildtemp\libraries\Mozzi-master\utility\FrequencyTimer2.cpp.o
 .debug_line    0x00003665        0x0 D:\projects\arduino\buildtemp\libraries\Mozzi-master\utility\TimerOne.cpp.o
 .debug_line    0x00003665        0x0 D:\projects\arduino\buildtemp\libraries\Mozzi-master\utility\TimerZero.cpp.o
 .debug_line    0x00003665      0xc8f D:\projects\arduino\buildtemp\libraries\SPI\SPI.cpp.o
 .debug_line    0x000042f4      0x55f D:\projects\arduino\buildtemp\libraries\STM32ADC\STM32ADC.cpp.o
 .debug_line    0x00004853      0x3f1 D:\projects\arduino\buildtemp\libraries\STM32ADC\utility\util_adc.c.o
 .debug_line    0x00004c44      0x3c6 D:\projects\arduino\buildtemp\core\board.cpp.o
 .debug_line    0x0000500a      0x45b D:\projects\arduino\buildtemp\core\wirish\boards.cpp.o
 .debug_line    0x00005465      0x430 D:\projects\arduino\buildtemp\core\wirish\boards_setup.cpp.o
 .debug_line    0x00005895       0x97 D:\projects\arduino\buildtemp\core\wirish\start.S.o
 .debug_line    0x0000592c       0xa8 D:\projects\arduino\buildtemp\core\wirish\start_c.c.o
 .debug_line    0x000059d4      0x2f1 D:\projects\arduino\buildtemp\core\wirish\syscalls.c.o
 .debug_line    0x00005cc5      0x509 D:\projects\arduino\buildtemp\core\core.a(HardwareSerial.cpp.o)
 .debug_line    0x000061ce      0x53f D:\projects\arduino\buildtemp\core\core.a(HardwareTimer.cpp.o)
 .debug_line    0x0000670d      0x6b6 D:\projects\arduino\buildtemp\core\core.a(Print.cpp.o)
 .debug_line    0x00006dc3       0x83 D:\projects\arduino\buildtemp\core\core.a(cxxabi-compat.cpp.o)
 .debug_line    0x00006e46      0x2ef D:\projects\arduino\buildtemp\core\core.a(adc.c.o)
 .debug_line    0x00007135      0x39b D:\projects\arduino\buildtemp\core\core.a(adc_f1.c.o)
 .debug_line    0x000074d0      0x31e D:\projects\arduino\buildtemp\core\core.a(dma.c.o)
 .debug_line    0x000077ee      0x613 D:\projects\arduino\buildtemp\core\core.a(dma_f1.c.o)
 .debug_line    0x00007e01       0x9a D:\projects\arduino\buildtemp\core\core.a(exc.S.o)
 .debug_line    0x00007e9b      0x405 D:\projects\arduino\buildtemp\core\core.a(exti.c.o)
 .debug_line    0x000082a0      0x2d4 D:\projects\arduino\buildtemp\core\core.a(exti_f1.c.o)
 .debug_line    0x00008574      0x271 D:\projects\arduino\buildtemp\core\core.a(flash.c.o)
 .debug_line    0x000087e5      0x306 D:\projects\arduino\buildtemp\core\core.a(gpio_f1.c.o)
 .debug_line    0x00008aeb      0x3e4 D:\projects\arduino\buildtemp\core\core.a(i2c_f1.c.o)
 .debug_line    0x00008ecf      0x2d9 D:\projects\arduino\buildtemp\core\core.a(nvic.c.o)
 .debug_line    0x000091a8      0x355 D:\projects\arduino\buildtemp\core\core.a(rcc.c.o)
 .debug_line    0x000094fd      0x3a2 D:\projects\arduino\buildtemp\core\core.a(rcc_f1.c.o)
 .debug_line    0x0000989f      0x3aa D:\projects\arduino\buildtemp\core\core.a(spi.c.o)
 .debug_line    0x00009c49      0x2bd D:\projects\arduino\buildtemp\core\core.a(spi_f1.c.o)
 .debug_line    0x00009f06       0x97 D:\projects\arduino\buildtemp\core\core.a(isrs.S.o)
 .debug_line    0x00009f9d      0x260 D:\projects\arduino\buildtemp\core\core.a(systick.c.o)
 .debug_line    0x0000a1fd      0x596 D:\projects\arduino\buildtemp\core\core.a(timer.c.o)
 .debug_line    0x0000a793      0x407 D:\projects\arduino\buildtemp\core\core.a(usart.c.o)
 .debug_line    0x0000ab9a      0x40e D:\projects\arduino\buildtemp\core\core.a(usart_f1.c.o)
 .debug_line    0x0000afa8      0x2ad D:\projects\arduino\buildtemp\core\core.a(usart_private.c.o)
 .debug_line    0x0000b255      0x4ab D:\projects\arduino\buildtemp\core\core.a(usb.c.o)
 .debug_line    0x0000b700      0x8b9 D:\projects\arduino\buildtemp\core\core.a(usb_cdcacm.c.o)
 .debug_line    0x0000bfb9      0x2a2 D:\projects\arduino\buildtemp\core\core.a(usb_reg_map.c.o)
 .debug_line    0x0000c25b      0x3f7 D:\projects\arduino\buildtemp\core\core.a(usb_core.c.o)
 .debug_line    0x0000c652      0x10c D:\projects\arduino\buildtemp\core\core.a(usb_init.c.o)
 .debug_line    0x0000c75e      0x138 D:\projects\arduino\buildtemp\core\core.a(usb_mem.c.o)
 .debug_line    0x0000c896      0x570 D:\projects\arduino\buildtemp\core\core.a(usb_regs.c.o)
 .debug_line    0x0000ce06      0x375 D:\projects\arduino\buildtemp\core\core.a(util.c.o)
 .debug_line    0x0000d17b       0x92 D:\projects\arduino\buildtemp\core\core.a(main.cpp.o)
 .debug_line    0x0000d20d      0x2ee D:\projects\arduino\buildtemp\core\core.a(pwm.cpp.o)
 .debug_line    0x0000d4fb      0x382 D:\projects\arduino\buildtemp\core\core.a(wirish_digital_f1.cpp.o)
 .debug_line    0x0000d87d      0x661 D:\projects\arduino\buildtemp\core\core.a(usb_serial.cpp.o)
 .debug_line    0x0000dede      0x323 D:\projects\arduino\buildtemp\core\core.a(wirish_digital.cpp.o)
 .debug_line    0x0000e201      0x2eb D:\projects\arduino\buildtemp\core\core.a(bkp_f1.c.o)
 .debug_line    0x0000e4ec      0x296 D:\projects\arduino\buildtemp\core\core.a(gpio.c.o)
 .debug_line    0x0000e782      0x643 D:\projects\arduino\buildtemp\core\core.a(i2c.c.o)

.debug_frame    0x00000000     0x3ce4
 *(.debug_frame)
 .debug_frame   0x00000000      0x534 D:\projects\arduino\buildtemp\sketch\Stylish.pde.cpp.o
 .debug_frame   0x00000534       0xc4 D:\projects\arduino\buildtemp\sketch\flashwriter.cpp.o
 .debug_frame   0x000005f8       0xd8 D:\projects\arduino\buildtemp\sketch\rgb.cpp.o
 .debug_frame   0x000006d0      0x154 D:\projects\arduino\buildtemp\libraries\WS2812B\WS2812B.cpp.o
 .debug_frame   0x00000824       0xa8 D:\projects\arduino\buildtemp\libraries\Mozzi-master\MozziGuts.cpp.o
 .debug_frame   0x000008cc      0x140 D:\projects\arduino\buildtemp\libraries\Mozzi-master\mozzi_analog.cpp.o
 .debug_frame   0x00000a0c       0x80 D:\projects\arduino\buildtemp\libraries\Mozzi-master\mozzi_fixmath.cpp.o
 .debug_frame   0x00000a8c       0x58 D:\projects\arduino\buildtemp\libraries\Mozzi-master\mozzi_midi.cpp.o
 .debug_frame   0x00000ae4      0x148 D:\projects\arduino\buildtemp\libraries\Mozzi-master\mozzi_rand.cpp.o
 .debug_frame   0x00000c2c       0x40 D:\projects\arduino\buildtemp\libraries\Mozzi-master\mozzi_utils.cpp.o
 .debug_frame   0x00000c6c      0x434 D:\projects\arduino\buildtemp\libraries\SPI\SPI.cpp.o
 .debug_frame   0x000010a0      0x1c0 D:\projects\arduino\buildtemp\libraries\STM32ADC\STM32ADC.cpp.o
 .debug_frame   0x00001260      0x108 D:\projects\arduino\buildtemp\libraries\STM32ADC\utility\util_adc.c.o
 .debug_frame   0x00001368       0x38 D:\projects\arduino\buildtemp\core\board.cpp.o
 .debug_frame   0x000013a0       0x84 D:\projects\arduino\buildtemp\core\wirish\boards.cpp.o
 .debug_frame   0x00001424       0x74 D:\projects\arduino\buildtemp\core\wirish\boards_setup.cpp.o
 .debug_frame   0x00001498       0x28 D:\projects\arduino\buildtemp\core\wirish\start_c.c.o
 .debug_frame   0x000014c0      0x130 D:\projects\arduino\buildtemp\core\wirish\syscalls.c.o
 .debug_frame   0x000015f0      0x10c D:\projects\arduino\buildtemp\core\core.a(HardwareSerial.cpp.o)
 .debug_frame   0x000016fc      0x17c D:\projects\arduino\buildtemp\core\core.a(HardwareTimer.cpp.o)
 .debug_frame   0x00001878      0x3c4 D:\projects\arduino\buildtemp\core\core.a(Print.cpp.o)
 .debug_frame   0x00001c3c       0x20 D:\projects\arduino\buildtemp\core\core.a(cxxabi-compat.cpp.o)
 .debug_frame   0x00001c5c       0x64 D:\projects\arduino\buildtemp\core\core.a(adc.c.o)
 .debug_frame   0x00001cc0       0xb4 D:\projects\arduino\buildtemp\core\core.a(adc_f1.c.o)
 .debug_frame   0x00001d74       0x30 D:\projects\arduino\buildtemp\core\core.a(dma.c.o)
 .debug_frame   0x00001da4      0x19c D:\projects\arduino\buildtemp\core\core.a(dma_f1.c.o)
 .debug_frame   0x00001f40      0x128 D:\projects\arduino\buildtemp\core\core.a(exti.c.o)
 .debug_frame   0x00002068       0x20 D:\projects\arduino\buildtemp\core\core.a(exti_f1.c.o)
 .debug_frame   0x00002088       0x20 D:\projects\arduino\buildtemp\core\core.a(flash.c.o)
 .debug_frame   0x000020a8       0x7c D:\projects\arduino\buildtemp\core\core.a(gpio_f1.c.o)
 .debug_frame   0x00002124       0x9c D:\projects\arduino\buildtemp\core\core.a(i2c_f1.c.o)
 .debug_frame   0x000021c0       0x5c D:\projects\arduino\buildtemp\core\core.a(nvic.c.o)
 .debug_frame   0x0000221c       0x70 D:\projects\arduino\buildtemp\core\core.a(rcc.c.o)
 .debug_frame   0x0000228c       0x98 D:\projects\arduino\buildtemp\core\core.a(rcc_f1.c.o)
 .debug_frame   0x00002324       0xec D:\projects\arduino\buildtemp\core\core.a(spi.c.o)
 .debug_frame   0x00002410       0x48 D:\projects\arduino\buildtemp\core\core.a(spi_f1.c.o)
 .debug_frame   0x00002458       0x68 D:\projects\arduino\buildtemp\core\core.a(systick.c.o)
 .debug_frame   0x000024c0      0x1d0 D:\projects\arduino\buildtemp\core\core.a(timer.c.o)
 .debug_frame   0x00002690       0xb4 D:\projects\arduino\buildtemp\core\core.a(usart.c.o)
 .debug_frame   0x00002744       0xe0 D:\projects\arduino\buildtemp\core\core.a(usart_f1.c.o)
 .debug_frame   0x00002824       0x28 D:\projects\arduino\buildtemp\core\core.a(usart_private.c.o)
 .debug_frame   0x0000284c       0x6c D:\projects\arduino\buildtemp\core\core.a(usb.c.o)
 .debug_frame   0x000028b8      0x2cc D:\projects\arduino\buildtemp\core\core.a(usb_cdcacm.c.o)
 .debug_frame   0x00002b84       0x20 D:\projects\arduino\buildtemp\core\core.a(usb_reg_map.c.o)
 .debug_frame   0x00002ba4      0x1ac D:\projects\arduino\buildtemp\core\core.a(usb_core.c.o)
 .debug_frame   0x00002d50       0x28 D:\projects\arduino\buildtemp\core\core.a(usb_init.c.o)
 .debug_frame   0x00002d78       0x44 D:\projects\arduino\buildtemp\core\core.a(usb_mem.c.o)
 .debug_frame   0x00002dbc      0x3d0 D:\projects\arduino\buildtemp\core\core.a(usb_regs.c.o)
 .debug_frame   0x0000318c       0xc8 D:\projects\arduino\buildtemp\core\core.a(util.c.o)
 .debug_frame   0x00003254       0x38 D:\projects\arduino\buildtemp\core\core.a(main.cpp.o)
 .debug_frame   0x0000328c       0x3c D:\projects\arduino\buildtemp\core\core.a(pwm.cpp.o)
 .debug_frame   0x000032c8       0x2c D:\projects\arduino\buildtemp\core\core.a(wirish_digital_f1.cpp.o)
 .debug_frame   0x000032f4      0x238 D:\projects\arduino\buildtemp\core\core.a(usb_serial.cpp.o)
 .debug_frame   0x0000352c       0x30 D:\projects\arduino\buildtemp\core\core.a(wirish_digital.cpp.o)
 .debug_frame   0x0000355c       0x68 D:\projects\arduino\buildtemp\core\core.a(bkp_f1.c.o)
 .debug_frame   0x000035c4       0x28 D:\projects\arduino\buildtemp\core\core.a(gpio.c.o)
 .debug_frame   0x000035ec       0xe0 D:\projects\arduino\buildtemp\core\core.a(i2c.c.o)
 .debug_frame   0x000036cc       0x20 c:/users/softegg/appdata/local/arduino15/packages/arduino/tools/arm-none-eabi-gcc/4.8.3-2014q1/bin/../lib/gcc/arm-none-eabi/4.8.3/../../../../arm-none-eabi/lib/armv7-m\libstdc++.a(atexit_arm.o)
 .debug_frame   0x000036ec       0x38 c:/users/softegg/appdata/local/arduino15/packages/arduino/tools/arm-none-eabi-gcc/4.8.3-2014q1/bin/../lib/gcc/arm-none-eabi/4.8.3/../../../../arm-none-eabi/lib/armv7-m\libm.a(lib_a-w_pow.o)
 .debug_frame   0x00003724       0x38 c:/users/softegg/appdata/local/arduino15/packages/arduino/tools/arm-none-eabi-gcc/4.8.3-2014q1/bin/../lib/gcc/arm-none-eabi/4.8.3/../../../../arm-none-eabi/lib/armv7-m\libm.a(lib_a-e_pow.o)
 .debug_frame   0x0000375c       0x34 c:/users/softegg/appdata/local/arduino15/packages/arduino/tools/arm-none-eabi-gcc/4.8.3-2014q1/bin/../lib/gcc/arm-none-eabi/4.8.3/../../../../arm-none-eabi/lib/armv7-m\libm.a(lib_a-e_sqrt.o)
 .debug_frame   0x00003790       0x20 c:/users/softegg/appdata/local/arduino15/packages/arduino/tools/arm-none-eabi-gcc/4.8.3-2014q1/bin/../lib/gcc/arm-none-eabi/4.8.3/../../../../arm-none-eabi/lib/armv7-m\libm.a(lib_a-s_fabs.o)
 .debug_frame   0x000037b0       0x20 c:/users/softegg/appdata/local/arduino15/packages/arduino/tools/arm-none-eabi-gcc/4.8.3-2014q1/bin/../lib/gcc/arm-none-eabi/4.8.3/../../../../arm-none-eabi/lib/armv7-m\libm.a(lib_a-s_finite.o)
 .debug_frame   0x000037d0       0x28 c:/users/softegg/appdata/local/arduino15/packages/arduino/tools/arm-none-eabi-gcc/4.8.3-2014q1/bin/../lib/gcc/arm-none-eabi/4.8.3/../../../../arm-none-eabi/lib/armv7-m\libm.a(lib_a-s_fpclassify.o)
 .debug_frame   0x000037f8       0x20 c:/users/softegg/appdata/local/arduino15/packages/arduino/tools/arm-none-eabi-gcc/4.8.3-2014q1/bin/../lib/gcc/arm-none-eabi/4.8.3/../../../../arm-none-eabi/lib/armv7-m\libm.a(lib_a-s_matherr.o)
 .debug_frame   0x00003818       0x20 c:/users/softegg/appdata/local/arduino15/packages/arduino/tools/arm-none-eabi-gcc/4.8.3-2014q1/bin/../lib/gcc/arm-none-eabi/4.8.3/../../../../arm-none-eabi/lib/armv7-m\libm.a(lib_a-s_nan.o)
 .debug_frame   0x00003838       0x34 c:/users/softegg/appdata/local/arduino15/packages/arduino/tools/arm-none-eabi-gcc/4.8.3-2014q1/bin/../lib/gcc/arm-none-eabi/4.8.3/../../../../arm-none-eabi/lib/armv7-m\libm.a(lib_a-s_rint.o)
 .debug_frame   0x0000386c       0x30 c:/users/softegg/appdata/local/arduino15/packages/arduino/tools/arm-none-eabi-gcc/4.8.3-2014q1/bin/../lib/gcc/arm-none-eabi/4.8.3/../../../../arm-none-eabi/lib/armv7-m\libm.a(lib_a-s_scalbn.o)
 .debug_frame   0x0000389c       0x28 c:/users/softegg/appdata/local/arduino15/packages/arduino/tools/arm-none-eabi-gcc/4.8.3-2014q1/bin/../lib/gcc/arm-none-eabi/4.8.3/../../../../arm-none-eabi/lib/armv7-m\libm.a(lib_a-s_copysign.o)
 .debug_frame   0x000038c4       0x2c c:/users/softegg/appdata/local/arduino15/packages/arduino/tools/arm-none-eabi-gcc/4.8.3-2014q1/bin/../lib/gcc/arm-none-eabi/4.8.3/armv7-m\libgcc.a(_fixdfdi.o)
 .debug_frame   0x000038f0       0x2c c:/users/softegg/appdata/local/arduino15/packages/arduino/tools/arm-none-eabi-gcc/4.8.3-2014q1/bin/../lib/gcc/arm-none-eabi/4.8.3/armv7-m\libgcc.a(_fixunsdfdi.o)
 .debug_frame   0x0000391c       0x58 c:/users/softegg/appdata/local/arduino15/packages/arduino/tools/arm-none-eabi-gcc/4.8.3-2014q1/bin/../lib/gcc/arm-none-eabi/4.8.3/armv7-m\libgcc.a(bpabi.o)
 .debug_frame   0x00003974       0x34 c:/users/softegg/appdata/local/arduino15/packages/arduino/tools/arm-none-eabi-gcc/4.8.3-2014q1/bin/../lib/gcc/arm-none-eabi/4.8.3/armv7-m\libgcc.a(_divdi3.o)
 .debug_frame   0x000039a8       0x34 c:/users/softegg/appdata/local/arduino15/packages/arduino/tools/arm-none-eabi-gcc/4.8.3-2014q1/bin/../lib/gcc/arm-none-eabi/4.8.3/armv7-m\libgcc.a(_udivdi3.o)
 .debug_frame   0x000039dc       0x28 c:/users/softegg/appdata/local/arduino15/packages/arduino/tools/arm-none-eabi-gcc/4.8.3-2014q1/bin/../lib/gcc/arm-none-eabi/4.8.3/../../../../arm-none-eabi/lib/armv7-m\libc.a(lib_a-cxa_atexit.o)
 .debug_frame   0x00003a04       0x20 c:/users/softegg/appdata/local/arduino15/packages/arduino/tools/arm-none-eabi-gcc/4.8.3-2014q1/bin/../lib/gcc/arm-none-eabi/4.8.3/../../../../arm-none-eabi/lib/armv7-m\libc.a(lib_a-errno.o)
 .debug_frame   0x00003a24       0x28 c:/users/softegg/appdata/local/arduino15/packages/arduino/tools/arm-none-eabi-gcc/4.8.3-2014q1/bin/../lib/gcc/arm-none-eabi/4.8.3/../../../../arm-none-eabi/lib/armv7-m\libc.a(lib_a-exit.o)
 .debug_frame   0x00003a4c       0x2c c:/users/softegg/appdata/local/arduino15/packages/arduino/tools/arm-none-eabi-gcc/4.8.3-2014q1/bin/../lib/gcc/arm-none-eabi/4.8.3/../../../../arm-none-eabi/lib/armv7-m\libc.a(lib_a-init.o)
 .debug_frame   0x00003a78       0x30 c:/users/softegg/appdata/local/arduino15/packages/arduino/tools/arm-none-eabi-gcc/4.8.3-2014q1/bin/../lib/gcc/arm-none-eabi/4.8.3/../../../../arm-none-eabi/lib/armv7-m\libc.a(lib_a-malloc.o)
 .debug_frame   0x00003aa8       0x38 c:/users/softegg/appdata/local/arduino15/packages/arduino/tools/arm-none-eabi-gcc/4.8.3-2014q1/bin/../lib/gcc/arm-none-eabi/4.8.3/../../../../arm-none-eabi/lib/armv7-m\libc.a(lib_a-mallocr.o)
 .debug_frame   0x00003ae0       0x2c c:/users/softegg/appdata/local/arduino15/packages/arduino/tools/arm-none-eabi-gcc/4.8.3-2014q1/bin/../lib/gcc/arm-none-eabi/4.8.3/../../../../arm-none-eabi/lib/armv7-m\libc.a(lib_a-memset.o)
 .debug_frame   0x00003b0c       0x30 c:/users/softegg/appdata/local/arduino15/packages/arduino/tools/arm-none-eabi-gcc/4.8.3-2014q1/bin/../lib/gcc/arm-none-eabi/4.8.3/../../../../arm-none-eabi/lib/armv7-m\libc.a(lib_a-mlock.o)
 .debug_frame   0x00003b3c       0x2c c:/users/softegg/appdata/local/arduino15/packages/arduino/tools/arm-none-eabi-gcc/4.8.3-2014q1/bin/../lib/gcc/arm-none-eabi/4.8.3/../../../../arm-none-eabi/lib/armv7-m\libc.a(lib_a-sbrkr.o)
 .debug_frame   0x00003b68       0x20 c:/users/softegg/appdata/local/arduino15/packages/arduino/tools/arm-none-eabi-gcc/4.8.3-2014q1/bin/../lib/gcc/arm-none-eabi/4.8.3/../../../../arm-none-eabi/lib/armv7-m\libc.a(lib_a-strlen.o)
 .debug_frame   0x00003b88       0x30 c:/users/softegg/appdata/local/arduino15/packages/arduino/tools/arm-none-eabi-gcc/4.8.3-2014q1/bin/../lib/gcc/arm-none-eabi/4.8.3/../../../../arm-none-eabi/lib/armv7-m\libc.a(lib_a-__atexit.o)
 .debug_frame   0x00003bb8       0x48 c:/users/softegg/appdata/local/arduino15/packages/arduino/tools/arm-none-eabi-gcc/4.8.3-2014q1/bin/../lib/gcc/arm-none-eabi/4.8.3/../../../../arm-none-eabi/lib/armv7-m\libc.a(lib_a-__call_atexit.o)
 .debug_frame   0x00003c00       0x20 c:/users/softegg/appdata/local/arduino15/packages/arduino/tools/arm-none-eabi-gcc/4.8.3-2014q1/bin/../lib/gcc/arm-none-eabi/4.8.3/../../../../arm-none-eabi/lib/armv7-m\libc.a(lib_a-atexit.o)
 .debug_frame   0x00003c20       0x2c c:/users/softegg/appdata/local/arduino15/packages/arduino/tools/arm-none-eabi-gcc/4.8.3-2014q1/bin/../lib/gcc/arm-none-eabi/4.8.3/../../../../arm-none-eabi/lib/armv7-m\libc.a(lib_a-fini.o)
 .debug_frame   0x00003c4c       0x50 c:/users/softegg/appdata/local/arduino15/packages/arduino/tools/arm-none-eabi-gcc/4.8.3-2014q1/bin/../lib/gcc/arm-none-eabi/4.8.3/../../../../arm-none-eabi/lib/armv7-m\libc.a(lib_a-freer.o)
 .debug_frame   0x00003c9c       0x48 c:/users/softegg/appdata/local/arduino15/packages/arduino/tools/arm-none-eabi-gcc/4.8.3-2014q1/bin/../lib/gcc/arm-none-eabi/4.8.3/../../../../arm-none-eabi/lib/armv7-m\libc.a(lib_a-reent.o)

.debug_str      0x00000000     0xc6cf
 *(.debug_str)
 .debug_str     0x00000000     0x27b5 D:\projects\arduino\buildtemp\sketch\Stylish.pde.cpp.o
                               0x2a6b (size before relaxing)
 .debug_str     0x000027b5       0xfa D:\projects\arduino\buildtemp\sketch\flashwriter.cpp.o
                                0x4a4 (size before relaxing)
 .debug_str     0x000028af       0x3d D:\projects\arduino\buildtemp\sketch\rgb.cpp.o
                                0x346 (size before relaxing)
 .debug_str     0x000028ec     0x1125 D:\projects\arduino\buildtemp\libraries\WS2812B\WS2812B.cpp.o
                               0x1638 (size before relaxing)
 .debug_str     0x00003a11     0x148e D:\projects\arduino\buildtemp\libraries\Mozzi-master\MozziGuts.cpp.o
                               0x1fcc (size before relaxing)
 .debug_str     0x00004e9f      0x378 D:\projects\arduino\buildtemp\libraries\Mozzi-master\mozzi_analog.cpp.o
                               0x12ec (size before relaxing)
 .debug_str     0x00005217      0x116 D:\projects\arduino\buildtemp\libraries\Mozzi-master\mozzi_fixmath.cpp.o
                                0x36a (size before relaxing)
 .debug_str     0x0000532d      0x140 D:\projects\arduino\buildtemp\libraries\Mozzi-master\mozzi_midi.cpp.o
                                0x3d2 (size before relaxing)
 .debug_str     0x0000546d      0x126 D:\projects\arduino\buildtemp\libraries\Mozzi-master\mozzi_rand.cpp.o
                                0xfa4 (size before relaxing)
 .debug_str     0x00005593       0x99 D:\projects\arduino\buildtemp\libraries\Mozzi-master\mozzi_utils.cpp.o
                                0x2c0 (size before relaxing)
 .debug_str     0x0000562c       0x4b D:\projects\arduino\buildtemp\libraries\Mozzi-master\twi_nonblock.cpp.o
                                0x272 (size before relaxing)
 .debug_str     0x00005677        0x0 D:\projects\arduino\buildtemp\libraries\Mozzi-master\utility\FrequencyTimer2.cpp.o
 .debug_str     0x00005677        0x0 D:\projects\arduino\buildtemp\libraries\Mozzi-master\utility\TimerOne.cpp.o
 .debug_str     0x00005677        0x0 D:\projects\arduino\buildtemp\libraries\Mozzi-master\utility\TimerZero.cpp.o
 .debug_str     0x00005677      0x634 D:\projects\arduino\buildtemp\libraries\SPI\SPI.cpp.o
                               0x1c1a (size before relaxing)
 .debug_str     0x00005cab      0x237 D:\projects\arduino\buildtemp\libraries\STM32ADC\STM32ADC.cpp.o
                               0x140a (size before relaxing)
 .debug_str     0x00005ee2      0x2be D:\projects\arduino\buildtemp\libraries\STM32ADC\utility\util_adc.c.o
                                0xad6 (size before relaxing)
 .debug_str     0x000061a0      0x153 D:\projects\arduino\buildtemp\core\board.cpp.o
                                0xce9 (size before relaxing)
 .debug_str     0x000062f3      0x6a3 D:\projects\arduino\buildtemp\core\wirish\boards.cpp.o
                               0x1125 (size before relaxing)
 .debug_str     0x00006996      0x50e D:\projects\arduino\buildtemp\core\wirish\boards_setup.cpp.o
                               0x1268 (size before relaxing)
 .debug_str     0x00006ea4       0xe6 D:\projects\arduino\buildtemp\core\wirish\start_c.c.o
                                0x1ee (size before relaxing)
 .debug_str     0x00006f8a      0x1bb D:\projects\arduino\buildtemp\core\wirish\syscalls.c.o
                                0x370 (size before relaxing)
 .debug_str     0x00007145      0xfd2 D:\projects\arduino\buildtemp\core\core.a(HardwareSerial.cpp.o)
                               0x1bc6 (size before relaxing)
 .debug_str     0x00008117      0x1ab D:\projects\arduino\buildtemp\core\core.a(HardwareTimer.cpp.o)
                               0x1739 (size before relaxing)
 .debug_str     0x000082c2      0x48c D:\projects\arduino\buildtemp\core\core.a(Print.cpp.o)
                               0x10e1 (size before relaxing)
 .debug_str     0x0000874e       0x69 D:\projects\arduino\buildtemp\core\core.a(cxxabi-compat.cpp.o)
                                0x168 (size before relaxing)
 .debug_str     0x000087b7       0x95 D:\projects\arduino\buildtemp\core\core.a(adc.c.o)
                                0xab8 (size before relaxing)
 .debug_str     0x0000884c       0xbe D:\projects\arduino\buildtemp\core\core.a(adc_f1.c.o)
                                0xdd3 (size before relaxing)
 .debug_str     0x0000890a      0x167 D:\projects\arduino\buildtemp\core\core.a(dma.c.o)
                                0xa30 (size before relaxing)
 .debug_str     0x00008a71      0x82f D:\projects\arduino\buildtemp\core\core.a(dma_f1.c.o)
                               0x137b (size before relaxing)
 .debug_str     0x000092a0      0x237 D:\projects\arduino\buildtemp\core\core.a(exti.c.o)
                                0x932 (size before relaxing)
 .debug_str     0x000094d7       0x57 D:\projects\arduino\buildtemp\core\core.a(exti_f1.c.o)
                                0x2dd (size before relaxing)
 .debug_str     0x0000952e       0x61 D:\projects\arduino\buildtemp\core\core.a(flash.c.o)
                                0x1fc (size before relaxing)
 .debug_str     0x0000958f      0x29b D:\projects\arduino\buildtemp\core\core.a(gpio_f1.c.o)
                                0x7b4 (size before relaxing)
 .debug_str     0x0000982a      0x220 D:\projects\arduino\buildtemp\core\core.a(i2c_f1.c.o)
                                0xd11 (size before relaxing)
 .debug_str     0x00009a4a       0xd0 D:\projects\arduino\buildtemp\core\core.a(nvic.c.o)
                                0x705 (size before relaxing)
 .debug_str     0x00009b1a       0xb9 D:\projects\arduino\buildtemp\core\core.a(rcc.c.o)
                                0x551 (size before relaxing)
 .debug_str     0x00009bd3       0xe8 D:\projects\arduino\buildtemp\core\core.a(rcc_f1.c.o)
                                0x7f2 (size before relaxing)
 .debug_str     0x00009cbb       0xfb D:\projects\arduino\buildtemp\core\core.a(spi.c.o)
                                0xb84 (size before relaxing)
 .debug_str     0x00009db6       0x9f D:\projects\arduino\buildtemp\core\core.a(spi_f1.c.o)
                                0x9aa (size before relaxing)
 .debug_str     0x00009e55       0xcd D:\projects\arduino\buildtemp\core\core.a(systick.c.o)
                                0x262 (size before relaxing)
 .debug_str     0x00009f22      0x2cf D:\projects\arduino\buildtemp\core\core.a(timer.c.o)
                                0xeab (size before relaxing)
 .debug_str     0x0000a1f1       0xcc D:\projects\arduino\buildtemp\core\core.a(usart.c.o)
                                0x9c8 (size before relaxing)
 .debug_str     0x0000a2bd      0x130 D:\projects\arduino\buildtemp\core\core.a(usart_f1.c.o)
                                0xabc (size before relaxing)
 .debug_str     0x0000a3ed       0x5d D:\projects\arduino\buildtemp\core\core.a(usart_private.c.o)
                                0x887 (size before relaxing)
 .debug_str     0x0000a44a      0x606 D:\projects\arduino\buildtemp\core\core.a(usb.c.o)
                                0xa5f (size before relaxing)
 .debug_str     0x0000aa50      0x98d D:\projects\arduino\buildtemp\core\core.a(usb_cdcacm.c.o)
                               0x1830 (size before relaxing)
 .debug_str     0x0000b3dd       0x8a D:\projects\arduino\buildtemp\core\core.a(usb_reg_map.c.o)
                                0x285 (size before relaxing)
 .debug_str     0x0000b467      0x485 D:\projects\arduino\buildtemp\core\core.a(usb_core.c.o)
                                0xabd (size before relaxing)
 .debug_str     0x0000b8ec       0x8f D:\projects\arduino\buildtemp\core\core.a(usb_init.c.o)
                                0x521 (size before relaxing)
 .debug_str     0x0000b97b       0x93 D:\projects\arduino\buildtemp\core\core.a(usb_mem.c.o)
                                0x1d7 (size before relaxing)
 .debug_str     0x0000ba0e      0x3d4 D:\projects\arduino\buildtemp\core\core.a(usb_regs.c.o)
                                0x55f (size before relaxing)
 .debug_str     0x0000bde2       0xdb D:\projects\arduino\buildtemp\core\core.a(util.c.o)
                                0xa34 (size before relaxing)
 .debug_str     0x0000bebd       0x61 D:\projects\arduino\buildtemp\core\core.a(main.cpp.o)
                                0x191 (size before relaxing)
 .debug_str     0x0000bf1e       0x81 D:\projects\arduino\buildtemp\core\core.a(pwm.cpp.o)
                                0xb4b (size before relaxing)
 .debug_str     0x0000bf9f       0x6d D:\projects\arduino\buildtemp\core\core.a(wirish_digital_f1.cpp.o)
                                0xc40 (size before relaxing)
 .debug_str     0x0000c00c      0x39d D:\projects\arduino\buildtemp\core\core.a(usb_serial.cpp.o)
                               0x1cca (size before relaxing)
 .debug_str     0x0000c3a9       0x85 D:\projects\arduino\buildtemp\core\core.a(wirish_digital.cpp.o)
                                0xab1 (size before relaxing)
 .debug_str     0x0000c42e       0x98 D:\projects\arduino\buildtemp\core\core.a(bkp_f1.c.o)
                                0x471 (size before relaxing)
 .debug_str     0x0000c4c6       0x54 D:\projects\arduino\buildtemp\core\core.a(gpio.c.o)
                                0x440 (size before relaxing)
 .debug_str     0x0000c51a      0x1b5 D:\projects\arduino\buildtemp\core\core.a(i2c.c.o)
                                0xe68 (size before relaxing)

.debug_loc      0x00000000     0xf1f1
 *(.debug_loc)
 .debug_loc     0x00000000     0x1c9d D:\projects\arduino\buildtemp\sketch\Stylish.pde.cpp.o
 .debug_loc     0x00001c9d      0x153 D:\projects\arduino\buildtemp\sketch\flashwriter.cpp.o
 .debug_loc     0x00001df0      0x9d9 D:\projects\arduino\buildtemp\sketch\rgb.cpp.o
 .debug_loc     0x000027c9      0x8bb D:\projects\arduino\buildtemp\libraries\WS2812B\WS2812B.cpp.o
 .debug_loc     0x00003084       0xca D:\projects\arduino\buildtemp\libraries\Mozzi-master\MozziGuts.cpp.o
 .debug_loc     0x0000314e       0xbc D:\projects\arduino\buildtemp\libraries\Mozzi-master\mozzi_analog.cpp.o
 .debug_loc     0x0000320a      0x2a5 D:\projects\arduino\buildtemp\libraries\Mozzi-master\mozzi_fixmath.cpp.o
 .debug_loc     0x000034af      0x164 D:\projects\arduino\buildtemp\libraries\Mozzi-master\mozzi_midi.cpp.o
 .debug_loc     0x00003613      0x1bf D:\projects\arduino\buildtemp\libraries\Mozzi-master\mozzi_rand.cpp.o
 .debug_loc     0x000037d2       0xf2 D:\projects\arduino\buildtemp\libraries\Mozzi-master\mozzi_utils.cpp.o
 .debug_loc     0x000038c4     0x13b9 D:\projects\arduino\buildtemp\libraries\SPI\SPI.cpp.o
 .debug_loc     0x00004c7d      0x629 D:\projects\arduino\buildtemp\libraries\STM32ADC\STM32ADC.cpp.o
 .debug_loc     0x000052a6      0x14c D:\projects\arduino\buildtemp\libraries\STM32ADC\utility\util_adc.c.o
 .debug_loc     0x000053f2      0x246 D:\projects\arduino\buildtemp\core\wirish\boards.cpp.o
 .debug_loc     0x00005638       0x13 D:\projects\arduino\buildtemp\core\wirish\boards_setup.cpp.o
 .debug_loc     0x0000564b       0xa5 D:\projects\arduino\buildtemp\core\wirish\start_c.c.o
 .debug_loc     0x000056f0      0x38a D:\projects\arduino\buildtemp\core\wirish\syscalls.c.o
 .debug_loc     0x00005a7a      0x39a D:\projects\arduino\buildtemp\core\core.a(HardwareSerial.cpp.o)
 .debug_loc     0x00005e14      0x757 D:\projects\arduino\buildtemp\core\core.a(HardwareTimer.cpp.o)
 .debug_loc     0x0000656b     0x1825 D:\projects\arduino\buildtemp\core\core.a(Print.cpp.o)
 .debug_loc     0x00007d90      0x145 D:\projects\arduino\buildtemp\core\core.a(adc.c.o)
 .debug_loc     0x00007ed5      0x2c7 D:\projects\arduino\buildtemp\core\core.a(adc_f1.c.o)
 .debug_loc     0x0000819c       0x42 D:\projects\arduino\buildtemp\core\core.a(dma.c.o)
 .debug_loc     0x000081de      0xbfb D:\projects\arduino\buildtemp\core\core.a(dma_f1.c.o)
 .debug_loc     0x00008dd9      0x6f0 D:\projects\arduino\buildtemp\core\core.a(exti.c.o)
 .debug_loc     0x000094c9       0x42 D:\projects\arduino\buildtemp\core\core.a(exti_f1.c.o)
 .debug_loc     0x0000950b       0x3f D:\projects\arduino\buildtemp\core\core.a(flash.c.o)
 .debug_loc     0x0000954a      0x267 D:\projects\arduino\buildtemp\core\core.a(gpio_f1.c.o)
 .debug_loc     0x000097b1      0x1c4 D:\projects\arduino\buildtemp\core\core.a(i2c_f1.c.o)
 .debug_loc     0x00009975      0x121 D:\projects\arduino\buildtemp\core\core.a(nvic.c.o)
 .debug_loc     0x00009a96      0x131 D:\projects\arduino\buildtemp\core\core.a(rcc.c.o)
 .debug_loc     0x00009bc7      0x352 D:\projects\arduino\buildtemp\core\core.a(rcc_f1.c.o)
 .debug_loc     0x00009f19      0x387 D:\projects\arduino\buildtemp\core\core.a(spi.c.o)
 .debug_loc     0x0000a2a0      0x19f D:\projects\arduino\buildtemp\core\core.a(spi_f1.c.o)
 .debug_loc     0x0000a43f      0xcd0 D:\projects\arduino\buildtemp\core\core.a(timer.c.o)
 .debug_loc     0x0000b10f      0x3af D:\projects\arduino\buildtemp\core\core.a(usart.c.o)
 .debug_loc     0x0000b4be      0x2c6 D:\projects\arduino\buildtemp\core\core.a(usart_f1.c.o)
 .debug_loc     0x0000b784       0x3f D:\projects\arduino\buildtemp\core\core.a(usart_private.c.o)
 .debug_loc     0x0000b7c3      0x4c8 D:\projects\arduino\buildtemp\core\core.a(usb.c.o)
 .debug_loc     0x0000bc8b      0xaab D:\projects\arduino\buildtemp\core\core.a(usb_cdcacm.c.o)
 .debug_loc     0x0000c736       0xf5 D:\projects\arduino\buildtemp\core\core.a(usb_reg_map.c.o)
 .debug_loc     0x0000c82b      0x7a1 D:\projects\arduino\buildtemp\core\core.a(usb_core.c.o)
 .debug_loc     0x0000cfcc      0x293 D:\projects\arduino\buildtemp\core\core.a(usb_mem.c.o)
 .debug_loc     0x0000d25f      0xbab D:\projects\arduino\buildtemp\core\core.a(usb_regs.c.o)
 .debug_loc     0x0000de0a      0x27f D:\projects\arduino\buildtemp\core\core.a(util.c.o)
 .debug_loc     0x0000e089       0xb1 D:\projects\arduino\buildtemp\core\core.a(pwm.cpp.o)
 .debug_loc     0x0000e13a      0x137 D:\projects\arduino\buildtemp\core\core.a(wirish_digital_f1.cpp.o)
 .debug_loc     0x0000e271      0x5a1 D:\projects\arduino\buildtemp\core\core.a(usb_serial.cpp.o)
 .debug_loc     0x0000e812       0x7c D:\projects\arduino\buildtemp\core\core.a(wirish_digital.cpp.o)
 .debug_loc     0x0000e88e       0xb3 D:\projects\arduino\buildtemp\core\core.a(bkp_f1.c.o)
 .debug_loc     0x0000e941       0x2c D:\projects\arduino\buildtemp\core\core.a(gpio.c.o)
 .debug_loc     0x0000e96d      0x884 D:\projects\arduino\buildtemp\core\core.a(i2c.c.o)

.debug_macinfo
 *(.debug_macinfo)

.debug_weaknames
 *(.debug_weaknames)

.debug_funcnames
 *(.debug_funcnames)

.debug_typenames
 *(.debug_typenames)

.debug_varnames
 *(.debug_varnames)

.note.gnu.arm.ident
 *(.note.gnu.arm.ident)

.ARM.attributes
                0x00000000       0x29
 *(.ARM.attributes)
 .ARM.attributes
                0x00000000       0x1d c:/users/softegg/appdata/local/arduino15/packages/arduino/tools/arm-none-eabi-gcc/4.8.3-2014q1/bin/../lib/gcc/arm-none-eabi/4.8.3/armv7-m/crti.o
 .ARM.attributes
                0x0000001d       0x2d c:/users/softegg/appdata/local/arduino15/packages/arduino/tools/arm-none-eabi-gcc/4.8.3-2014q1/bin/../lib/gcc/arm-none-eabi/4.8.3/armv7-m/crtbegin.o
 .ARM.attributes
                0x0000004a       0x1b c:/users/softegg/appdata/local/arduino15/packages/arduino/tools/arm-none-eabi-gcc/4.8.3-2014q1/bin/../lib/gcc/arm-none-eabi/4.8.3/../../../../arm-none-eabi/lib/armv7-m/crt0.o
 .ARM.attributes
                0x00000065       0x33 D:\projects\arduino\buildtemp\sketch\Stylish.pde.cpp.o
 .ARM.attributes
                0x00000098       0x33 D:\projects\arduino\buildtemp\sketch\flashwriter.cpp.o
 .ARM.attributes
                0x000000cb       0x33 D:\projects\arduino\buildtemp\sketch\rgb.cpp.o
 .ARM.attributes
                0x000000fe       0x33 D:\projects\arduino\buildtemp\libraries\WS2812B\WS2812B.cpp.o
 .ARM.attributes
                0x00000131       0x33 D:\projects\arduino\buildtemp\libraries\Mozzi-master\MozziGuts.cpp.o
 .ARM.attributes
                0x00000164       0x33 D:\projects\arduino\buildtemp\libraries\Mozzi-master\mozzi_analog.cpp.o
 .ARM.attributes
                0x00000197       0x33 D:\projects\arduino\buildtemp\libraries\Mozzi-master\mozzi_fixmath.cpp.o
 .ARM.attributes
                0x000001ca       0x33 D:\projects\arduino\buildtemp\libraries\Mozzi-master\mozzi_midi.cpp.o
 .ARM.attributes
                0x000001fd       0x33 D:\projects\arduino\buildtemp\libraries\Mozzi-master\mozzi_rand.cpp.o
 .ARM.attributes
                0x00000230       0x33 D:\projects\arduino\buildtemp\libraries\Mozzi-master\mozzi_utils.cpp.o
 .ARM.attributes
                0x00000263       0x33 D:\projects\arduino\buildtemp\libraries\Mozzi-master\twi_nonblock.cpp.o
 .ARM.attributes
                0x00000296       0x33 D:\projects\arduino\buildtemp\libraries\Mozzi-master\utility\FrequencyTimer2.cpp.o
 .ARM.attributes
                0x000002c9       0x33 D:\projects\arduino\buildtemp\libraries\Mozzi-master\utility\TimerOne.cpp.o
 .ARM.attributes
                0x000002fc       0x33 D:\projects\arduino\buildtemp\libraries\Mozzi-master\utility\TimerZero.cpp.o
 .ARM.attributes
                0x0000032f       0x33 D:\projects\arduino\buildtemp\libraries\SPI\SPI.cpp.o
 .ARM.attributes
                0x00000362       0x33 D:\projects\arduino\buildtemp\libraries\STM32ADC\STM32ADC.cpp.o
 .ARM.attributes
                0x00000395       0x33 D:\projects\arduino\buildtemp\libraries\STM32ADC\utility\util_adc.c.o
 .ARM.attributes
                0x000003c8       0x33 D:\projects\arduino\buildtemp\core\board.cpp.o
 .ARM.attributes
                0x000003fb       0x33 D:\projects\arduino\buildtemp\core\wirish\boards.cpp.o
 .ARM.attributes
                0x0000042e       0x33 D:\projects\arduino\buildtemp\core\wirish\boards_setup.cpp.o
 .ARM.attributes
                0x00000461       0x1b D:\projects\arduino\buildtemp\core\wirish\start.S.o
 .ARM.attributes
                0x0000047c       0x33 D:\projects\arduino\buildtemp\core\wirish\start_c.c.o
 .ARM.attributes
                0x000004af       0x33 D:\projects\arduino\buildtemp\core\wirish\syscalls.c.o
 .ARM.attributes
                0x000004e2       0x33 D:\projects\arduino\buildtemp\core\core.a(HardwareSerial.cpp.o)
 .ARM.attributes
                0x00000515       0x33 D:\projects\arduino\buildtemp\core\core.a(HardwareTimer.cpp.o)
 .ARM.attributes
                0x00000548       0x33 D:\projects\arduino\buildtemp\core\core.a(Print.cpp.o)
 .ARM.attributes
                0x0000057b       0x33 D:\projects\arduino\buildtemp\core\core.a(cxxabi-compat.cpp.o)
 .ARM.attributes
                0x000005ae       0x33 D:\projects\arduino\buildtemp\core\core.a(adc.c.o)
 .ARM.attributes
                0x000005e1       0x33 D:\projects\arduino\buildtemp\core\core.a(adc_f1.c.o)
 .ARM.attributes
                0x00000614       0x33 D:\projects\arduino\buildtemp\core\core.a(dma.c.o)
 .ARM.attributes
                0x00000647       0x33 D:\projects\arduino\buildtemp\core\core.a(dma_f1.c.o)
 .ARM.attributes
                0x0000067a       0x1b D:\projects\arduino\buildtemp\core\core.a(exc.S.o)
 .ARM.attributes
                0x00000695       0x33 D:\projects\arduino\buildtemp\core\core.a(exti.c.o)
 .ARM.attributes
                0x000006c8       0x33 D:\projects\arduino\buildtemp\core\core.a(exti_f1.c.o)
 .ARM.attributes
                0x000006fb       0x33 D:\projects\arduino\buildtemp\core\core.a(flash.c.o)
 .ARM.attributes
                0x0000072e       0x33 D:\projects\arduino\buildtemp\core\core.a(gpio_f1.c.o)
 .ARM.attributes
                0x00000761       0x33 D:\projects\arduino\buildtemp\core\core.a(i2c_f1.c.o)
 .ARM.attributes
                0x00000794       0x33 D:\projects\arduino\buildtemp\core\core.a(nvic.c.o)
 .ARM.attributes
                0x000007c7       0x33 D:\projects\arduino\buildtemp\core\core.a(rcc.c.o)
 .ARM.attributes
                0x000007fa       0x33 D:\projects\arduino\buildtemp\core\core.a(rcc_f1.c.o)
 .ARM.attributes
                0x0000082d       0x33 D:\projects\arduino\buildtemp\core\core.a(spi.c.o)
 .ARM.attributes
                0x00000860       0x33 D:\projects\arduino\buildtemp\core\core.a(spi_f1.c.o)
 .ARM.attributes
                0x00000893       0x1b D:\projects\arduino\buildtemp\core\core.a(isrs.S.o)
 .ARM.attributes
                0x000008ae       0x1b D:\projects\arduino\buildtemp\core\core.a(vector_table.S.o)
 .ARM.attributes
                0x000008c9       0x33 D:\projects\arduino\buildtemp\core\core.a(systick.c.o)
 .ARM.attributes
                0x000008fc       0x33 D:\projects\arduino\buildtemp\core\core.a(timer.c.o)
 .ARM.attributes
                0x0000092f       0x33 D:\projects\arduino\buildtemp\core\core.a(usart.c.o)
 .ARM.attributes
                0x00000962       0x33 D:\projects\arduino\buildtemp\core\core.a(usart_f1.c.o)
 .ARM.attributes
                0x00000995       0x33 D:\projects\arduino\buildtemp\core\core.a(usart_private.c.o)
 .ARM.attributes
                0x000009c8       0x33 D:\projects\arduino\buildtemp\core\core.a(usb.c.o)
 .ARM.attributes
                0x000009fb       0x33 D:\projects\arduino\buildtemp\core\core.a(usb_cdcacm.c.o)
 .ARM.attributes
                0x00000a2e       0x33 D:\projects\arduino\buildtemp\core\core.a(usb_reg_map.c.o)
 .ARM.attributes
                0x00000a61       0x33 D:\projects\arduino\buildtemp\core\core.a(usb_core.c.o)
 .ARM.attributes
                0x00000a94       0x33 D:\projects\arduino\buildtemp\core\core.a(usb_init.c.o)
 .ARM.attributes
                0x00000ac7       0x33 D:\projects\arduino\buildtemp\core\core.a(usb_mem.c.o)
 .ARM.attributes
                0x00000afa       0x33 D:\projects\arduino\buildtemp\core\core.a(usb_regs.c.o)
 .ARM.attributes
                0x00000b2d       0x33 D:\projects\arduino\buildtemp\core\core.a(util.c.o)
 .ARM.attributes
                0x00000b60       0x33 D:\projects\arduino\buildtemp\core\core.a(main.cpp.o)
 .ARM.attributes
                0x00000b93       0x33 D:\projects\arduino\buildtemp\core\core.a(pwm.cpp.o)
 .ARM.attributes
                0x00000bc6       0x33 D:\projects\arduino\buildtemp\core\core.a(wirish_digital_f1.cpp.o)
 .ARM.attributes
                0x00000bf9       0x33 D:\projects\arduino\buildtemp\core\core.a(usb_serial.cpp.o)
 .ARM.attributes
                0x00000c2c       0x33 D:\projects\arduino\buildtemp\core\core.a(wirish_digital.cpp.o)
 .ARM.attributes
                0x00000c5f       0x33 D:\projects\arduino\buildtemp\core\core.a(bkp_f1.c.o)
 .ARM.attributes
                0x00000c92       0x33 D:\projects\arduino\buildtemp\core\core.a(gpio.c.o)
 .ARM.attributes
                0x00000cc5       0x33 D:\projects\arduino\buildtemp\core\core.a(i2c.c.o)
 .ARM.attributes
                0x00000cf8       0x2d c:/users/softegg/appdata/local/arduino15/packages/arduino/tools/arm-none-eabi-gcc/4.8.3-2014q1/bin/../lib/gcc/arm-none-eabi/4.8.3/../../../../arm-none-eabi/lib/armv7-m\libstdc++.a(atexit_arm.o)
 .ARM.attributes
                0x00000d25       0x2d c:/users/softegg/appdata/local/arduino15/packages/arduino/tools/arm-none-eabi-gcc/4.8.3-2014q1/bin/../lib/gcc/arm-none-eabi/4.8.3/../../../../arm-none-eabi/lib/armv7-m\libm.a(lib_a-w_pow.o)
 .ARM.attributes
                0x00000d52       0x2d c:/users/softegg/appdata/local/arduino15/packages/arduino/tools/arm-none-eabi-gcc/4.8.3-2014q1/bin/../lib/gcc/arm-none-eabi/4.8.3/../../../../arm-none-eabi/lib/armv7-m\libm.a(lib_a-e_pow.o)
 .ARM.attributes
                0x00000d7f       0x2d c:/users/softegg/appdata/local/arduino15/packages/arduino/tools/arm-none-eabi-gcc/4.8.3-2014q1/bin/../lib/gcc/arm-none-eabi/4.8.3/../../../../arm-none-eabi/lib/armv7-m\libm.a(lib_a-e_sqrt.o)
 .ARM.attributes
                0x00000dac       0x2d c:/users/softegg/appdata/local/arduino15/packages/arduino/tools/arm-none-eabi-gcc/4.8.3-2014q1/bin/../lib/gcc/arm-none-eabi/4.8.3/../../../../arm-none-eabi/lib/armv7-m\libm.a(lib_a-s_fabs.o)
 .ARM.attributes
                0x00000dd9       0x2d c:/users/softegg/appdata/local/arduino15/packages/arduino/tools/arm-none-eabi-gcc/4.8.3-2014q1/bin/../lib/gcc/arm-none-eabi/4.8.3/../../../../arm-none-eabi/lib/armv7-m\libm.a(lib_a-s_finite.o)
 .ARM.attributes
                0x00000e06       0x2d c:/users/softegg/appdata/local/arduino15/packages/arduino/tools/arm-none-eabi-gcc/4.8.3-2014q1/bin/../lib/gcc/arm-none-eabi/4.8.3/../../../../arm-none-eabi/lib/armv7-m\libm.a(lib_a-s_fpclassify.o)
 .ARM.attributes
                0x00000e33       0x2d c:/users/softegg/appdata/local/arduino15/packages/arduino/tools/arm-none-eabi-gcc/4.8.3-2014q1/bin/../lib/gcc/arm-none-eabi/4.8.3/../../../../arm-none-eabi/lib/armv7-m\libm.a(lib_a-s_lib_ver.o)
 .ARM.attributes
                0x00000e60       0x2d c:/users/softegg/appdata/local/arduino15/packages/arduino/tools/arm-none-eabi-gcc/4.8.3-2014q1/bin/../lib/gcc/arm-none-eabi/4.8.3/../../../../arm-none-eabi/lib/armv7-m\libm.a(lib_a-s_matherr.o)
 .ARM.attributes
                0x00000e8d       0x2d c:/users/softegg/appdata/local/arduino15/packages/arduino/tools/arm-none-eabi-gcc/4.8.3-2014q1/bin/../lib/gcc/arm-none-eabi/4.8.3/../../../../arm-none-eabi/lib/armv7-m\libm.a(lib_a-s_nan.o)
 .ARM.attributes
                0x00000eba       0x2d c:/users/softegg/appdata/local/arduino15/packages/arduino/tools/arm-none-eabi-gcc/4.8.3-2014q1/bin/../lib/gcc/arm-none-eabi/4.8.3/../../../../arm-none-eabi/lib/armv7-m\libm.a(lib_a-s_rint.o)
 .ARM.attributes
                0x00000ee7       0x2d c:/users/softegg/appdata/local/arduino15/packages/arduino/tools/arm-none-eabi-gcc/4.8.3-2014q1/bin/../lib/gcc/arm-none-eabi/4.8.3/../../../../arm-none-eabi/lib/armv7-m\libm.a(lib_a-s_scalbn.o)
 .ARM.attributes
                0x00000f14       0x2d c:/users/softegg/appdata/local/arduino15/packages/arduino/tools/arm-none-eabi-gcc/4.8.3-2014q1/bin/../lib/gcc/arm-none-eabi/4.8.3/../../../../arm-none-eabi/lib/armv7-m\libm.a(lib_a-s_copysign.o)
 .ARM.attributes
                0x00000f41       0x1d c:/users/softegg/appdata/local/arduino15/packages/arduino/tools/arm-none-eabi-gcc/4.8.3-2014q1/bin/../lib/gcc/arm-none-eabi/4.8.3/armv7-m\libgcc.a(_arm_addsubdf3.o)
 .ARM.attributes
                0x00000f5e       0x1d c:/users/softegg/appdata/local/arduino15/packages/arduino/tools/arm-none-eabi-gcc/4.8.3-2014q1/bin/../lib/gcc/arm-none-eabi/4.8.3/armv7-m\libgcc.a(_arm_muldivdf3.o)
 .ARM.attributes
                0x00000f7b       0x1d c:/users/softegg/appdata/local/arduino15/packages/arduino/tools/arm-none-eabi-gcc/4.8.3-2014q1/bin/../lib/gcc/arm-none-eabi/4.8.3/armv7-m\libgcc.a(_arm_cmpdf2.o)
 .ARM.attributes
                0x00000f98       0x1d c:/users/softegg/appdata/local/arduino15/packages/arduino/tools/arm-none-eabi-gcc/4.8.3-2014q1/bin/../lib/gcc/arm-none-eabi/4.8.3/armv7-m\libgcc.a(_arm_fixdfsi.o)
 .ARM.attributes
                0x00000fb5       0x1d c:/users/softegg/appdata/local/arduino15/packages/arduino/tools/arm-none-eabi-gcc/4.8.3-2014q1/bin/../lib/gcc/arm-none-eabi/4.8.3/armv7-m\libgcc.a(_arm_truncdfsf2.o)
 .ARM.attributes
                0x00000fd2       0x1d c:/users/softegg/appdata/local/arduino15/packages/arduino/tools/arm-none-eabi-gcc/4.8.3-2014q1/bin/../lib/gcc/arm-none-eabi/4.8.3/armv7-m\libgcc.a(_arm_addsubsf3.o)
 .ARM.attributes
                0x00000fef       0x1d c:/users/softegg/appdata/local/arduino15/packages/arduino/tools/arm-none-eabi-gcc/4.8.3-2014q1/bin/../lib/gcc/arm-none-eabi/4.8.3/armv7-m\libgcc.a(_arm_muldivsf3.o)
 .ARM.attributes
                0x0000100c       0x1d c:/users/softegg/appdata/local/arduino15/packages/arduino/tools/arm-none-eabi-gcc/4.8.3-2014q1/bin/../lib/gcc/arm-none-eabi/4.8.3/armv7-m\libgcc.a(_arm_cmpsf2.o)
 .ARM.attributes
                0x00001029       0x1d c:/users/softegg/appdata/local/arduino15/packages/arduino/tools/arm-none-eabi-gcc/4.8.3-2014q1/bin/../lib/gcc/arm-none-eabi/4.8.3/armv7-m\libgcc.a(_arm_fixunssfsi.o)
 .ARM.attributes
                0x00001046       0x1d c:/users/softegg/appdata/local/arduino15/packages/arduino/tools/arm-none-eabi-gcc/4.8.3-2014q1/bin/../lib/gcc/arm-none-eabi/4.8.3/armv7-m\libgcc.a(_aeabi_uldivmod.o)
 .ARM.attributes
                0x00001063       0x2d c:/users/softegg/appdata/local/arduino15/packages/arduino/tools/arm-none-eabi-gcc/4.8.3-2014q1/bin/../lib/gcc/arm-none-eabi/4.8.3/armv7-m\libgcc.a(_fixdfdi.o)
 .ARM.attributes
                0x00001090       0x2d c:/users/softegg/appdata/local/arduino15/packages/arduino/tools/arm-none-eabi-gcc/4.8.3-2014q1/bin/../lib/gcc/arm-none-eabi/4.8.3/armv7-m\libgcc.a(_fixunsdfdi.o)
 .ARM.attributes
                0x000010bd       0x2d c:/users/softegg/appdata/local/arduino15/packages/arduino/tools/arm-none-eabi-gcc/4.8.3-2014q1/bin/../lib/gcc/arm-none-eabi/4.8.3/armv7-m\libgcc.a(bpabi.o)
 .ARM.attributes
                0x000010ea       0x1d c:/users/softegg/appdata/local/arduino15/packages/arduino/tools/arm-none-eabi-gcc/4.8.3-2014q1/bin/../lib/gcc/arm-none-eabi/4.8.3/armv7-m\libgcc.a(_dvmd_tls.o)
 .ARM.attributes
                0x00001107       0x1d c:/users/softegg/appdata/local/arduino15/packages/arduino/tools/arm-none-eabi-gcc/4.8.3-2014q1/bin/../lib/gcc/arm-none-eabi/4.8.3/armv7-m\libgcc.a(_arm_fixunsdfsi.o)
 .ARM.attributes
                0x00001124       0x2d c:/users/softegg/appdata/local/arduino15/packages/arduino/tools/arm-none-eabi-gcc/4.8.3-2014q1/bin/../lib/gcc/arm-none-eabi/4.8.3/armv7-m\libgcc.a(_divdi3.o)
 .ARM.attributes
                0x00001151       0x2d c:/users/softegg/appdata/local/arduino15/packages/arduino/tools/arm-none-eabi-gcc/4.8.3-2014q1/bin/../lib/gcc/arm-none-eabi/4.8.3/armv7-m\libgcc.a(_udivdi3.o)
 .ARM.attributes
                0x0000117e       0x2d c:/users/softegg/appdata/local/arduino15/packages/arduino/tools/arm-none-eabi-gcc/4.8.3-2014q1/bin/../lib/gcc/arm-none-eabi/4.8.3/../../../../arm-none-eabi/lib/armv7-m\libc.a(lib_a-cxa_atexit.o)
 .ARM.attributes
                0x000011ab       0x2d c:/users/softegg/appdata/local/arduino15/packages/arduino/tools/arm-none-eabi-gcc/4.8.3-2014q1/bin/../lib/gcc/arm-none-eabi/4.8.3/../../../../arm-none-eabi/lib/armv7-m\libc.a(lib_a-errno.o)
 .ARM.attributes
                0x000011d8       0x2d c:/users/softegg/appdata/local/arduino15/packages/arduino/tools/arm-none-eabi-gcc/4.8.3-2014q1/bin/../lib/gcc/arm-none-eabi/4.8.3/../../../../arm-none-eabi/lib/armv7-m\libc.a(lib_a-exit.o)
 .ARM.attributes
                0x00001205       0x2d c:/users/softegg/appdata/local/arduino15/packages/arduino/tools/arm-none-eabi-gcc/4.8.3-2014q1/bin/../lib/gcc/arm-none-eabi/4.8.3/../../../../arm-none-eabi/lib/armv7-m\libc.a(lib_a-impure.o)
 .ARM.attributes
                0x00001232       0x2d c:/users/softegg/appdata/local/arduino15/packages/arduino/tools/arm-none-eabi-gcc/4.8.3-2014q1/bin/../lib/gcc/arm-none-eabi/4.8.3/../../../../arm-none-eabi/lib/armv7-m\libc.a(lib_a-init.o)
 .ARM.attributes
                0x0000125f       0x2d c:/users/softegg/appdata/local/arduino15/packages/arduino/tools/arm-none-eabi-gcc/4.8.3-2014q1/bin/../lib/gcc/arm-none-eabi/4.8.3/../../../../arm-none-eabi/lib/armv7-m\libc.a(lib_a-malloc.o)
 .ARM.attributes
                0x0000128c       0x2d c:/users/softegg/appdata/local/arduino15/packages/arduino/tools/arm-none-eabi-gcc/4.8.3-2014q1/bin/../lib/gcc/arm-none-eabi/4.8.3/../../../../arm-none-eabi/lib/armv7-m\libc.a(lib_a-mallocr.o)
 .ARM.attributes
                0x000012b9       0x1b c:/users/softegg/appdata/local/arduino15/packages/arduino/tools/arm-none-eabi-gcc/4.8.3-2014q1/bin/../lib/gcc/arm-none-eabi/4.8.3/../../../../arm-none-eabi/lib/armv7-m\libc.a(lib_a-memcpy.o)
 .ARM.attributes
                0x000012d4       0x2d c:/users/softegg/appdata/local/arduino15/packages/arduino/tools/arm-none-eabi-gcc/4.8.3-2014q1/bin/../lib/gcc/arm-none-eabi/4.8.3/../../../../arm-none-eabi/lib/armv7-m\libc.a(lib_a-memset.o)
 .ARM.attributes
                0x00001301       0x2d c:/users/softegg/appdata/local/arduino15/packages/arduino/tools/arm-none-eabi-gcc/4.8.3-2014q1/bin/../lib/gcc/arm-none-eabi/4.8.3/../../../../arm-none-eabi/lib/armv7-m\libc.a(lib_a-mlock.o)
 .ARM.attributes
                0x0000132e       0x2d c:/users/softegg/appdata/local/arduino15/packages/arduino/tools/arm-none-eabi-gcc/4.8.3-2014q1/bin/../lib/gcc/arm-none-eabi/4.8.3/../../../../arm-none-eabi/lib/armv7-m\libc.a(lib_a-sbrkr.o)
 .ARM.attributes
                0x0000135b       0x2d c:/users/softegg/appdata/local/arduino15/packages/arduino/tools/arm-none-eabi-gcc/4.8.3-2014q1/bin/../lib/gcc/arm-none-eabi/4.8.3/../../../../arm-none-eabi/lib/armv7-m\libc.a(lib_a-strlen.o)
 .ARM.attributes
                0x00001388       0x2d c:/users/softegg/appdata/local/arduino15/packages/arduino/tools/arm-none-eabi-gcc/4.8.3-2014q1/bin/../lib/gcc/arm-none-eabi/4.8.3/../../../../arm-none-eabi/lib/armv7-m\libc.a(lib_a-__atexit.o)
 .ARM.attributes
                0x000013b5       0x2d c:/users/softegg/appdata/local/arduino15/packages/arduino/tools/arm-none-eabi-gcc/4.8.3-2014q1/bin/../lib/gcc/arm-none-eabi/4.8.3/../../../../arm-none-eabi/lib/armv7-m\libc.a(lib_a-__call_atexit.o)
 .ARM.attributes
                0x000013e2       0x2d c:/users/softegg/appdata/local/arduino15/packages/arduino/tools/arm-none-eabi-gcc/4.8.3-2014q1/bin/../lib/gcc/arm-none-eabi/4.8.3/../../../../arm-none-eabi/lib/armv7-m\libc.a(lib_a-atexit.o)
 .ARM.attributes
                0x0000140f       0x2d c:/users/softegg/appdata/local/arduino15/packages/arduino/tools/arm-none-eabi-gcc/4.8.3-2014q1/bin/../lib/gcc/arm-none-eabi/4.8.3/../../../../arm-none-eabi/lib/armv7-m\libc.a(lib_a-fini.o)
 .ARM.attributes
                0x0000143c       0x2d c:/users/softegg/appdata/local/arduino15/packages/arduino/tools/arm-none-eabi-gcc/4.8.3-2014q1/bin/../lib/gcc/arm-none-eabi/4.8.3/../../../../arm-none-eabi/lib/armv7-m\libc.a(lib_a-freer.o)
 .ARM.attributes
                0x00001469       0x2d c:/users/softegg/appdata/local/arduino15/packages/arduino/tools/arm-none-eabi-gcc/4.8.3-2014q1/bin/../lib/gcc/arm-none-eabi/4.8.3/../../../../arm-none-eabi/lib/armv7-m\libc.a(lib_a-reent.o)
 .ARM.attributes
                0x00001496       0x2d c:/users/softegg/appdata/local/arduino15/packages/arduino/tools/arm-none-eabi-gcc/4.8.3-2014q1/bin/../lib/gcc/arm-none-eabi/4.8.3/armv7-m/crtend.o
 .ARM.attributes
                0x000014c3       0x1d c:/users/softegg/appdata/local/arduino15/packages/arduino/tools/arm-none-eabi-gcc/4.8.3-2014q1/bin/../lib/gcc/arm-none-eabi/4.8.3/armv7-m/crtn.o

/DISCARD/
 *(.note.GNU-stack)
OUTPUT(D:\projects\arduino\buildtemp/Stylish.pde.elf elf32-littlearm)

.debug_ranges   0x00000000     0x2bc8
 .debug_ranges  0x00000000      0x578 D:\projects\arduino\buildtemp\sketch\Stylish.pde.cpp.o
 .debug_ranges  0x00000578       0x68 D:\projects\arduino\buildtemp\sketch\flashwriter.cpp.o
 .debug_ranges  0x000005e0       0x90 D:\projects\arduino\buildtemp\sketch\rgb.cpp.o
 .debug_ranges  0x00000670       0xd0 D:\projects\arduino\buildtemp\libraries\WS2812B\WS2812B.cpp.o
 .debug_ranges  0x00000740       0xb8 D:\projects\arduino\buildtemp\libraries\Mozzi-master\MozziGuts.cpp.o
 .debug_ranges  0x000007f8       0x98 D:\projects\arduino\buildtemp\libraries\Mozzi-master\mozzi_analog.cpp.o
 .debug_ranges  0x00000890       0x40 D:\projects\arduino\buildtemp\libraries\Mozzi-master\mozzi_fixmath.cpp.o
 .debug_ranges  0x000008d0       0x58 D:\projects\arduino\buildtemp\libraries\Mozzi-master\mozzi_midi.cpp.o
 .debug_ranges  0x00000928       0x70 D:\projects\arduino\buildtemp\libraries\Mozzi-master\mozzi_rand.cpp.o
 .debug_ranges  0x00000998       0x18 D:\projects\arduino\buildtemp\libraries\Mozzi-master\mozzi_utils.cpp.o
 .debug_ranges  0x000009b0      0x530 D:\projects\arduino\buildtemp\libraries\SPI\SPI.cpp.o
 .debug_ranges  0x00000ee0       0xd8 D:\projects\arduino\buildtemp\libraries\STM32ADC\STM32ADC.cpp.o
 .debug_ranges  0x00000fb8       0xa8 D:\projects\arduino\buildtemp\libraries\STM32ADC\utility\util_adc.c.o
 .debug_ranges  0x00001060       0x38 D:\projects\arduino\buildtemp\core\board.cpp.o
 .debug_ranges  0x00001098      0x160 D:\projects\arduino\buildtemp\core\wirish\boards.cpp.o
 .debug_ranges  0x000011f8       0x48 D:\projects\arduino\buildtemp\core\wirish\boards_setup.cpp.o
 .debug_ranges  0x00001240       0x10 D:\projects\arduino\buildtemp\core\wirish\start_c.c.o
 .debug_ranges  0x00001250       0x78 D:\projects\arduino\buildtemp\core\wirish\syscalls.c.o
 .debug_ranges  0x000012c8       0x90 D:\projects\arduino\buildtemp\core\core.a(HardwareSerial.cpp.o)
 .debug_ranges  0x00001358      0x188 D:\projects\arduino\buildtemp\core\core.a(HardwareTimer.cpp.o)
 .debug_ranges  0x000014e0      0x270 D:\projects\arduino\buildtemp\core\core.a(Print.cpp.o)
 .debug_ranges  0x00001750       0x10 D:\projects\arduino\buildtemp\core\core.a(cxxabi-compat.cpp.o)
 .debug_ranges  0x00001760       0x28 D:\projects\arduino\buildtemp\core\core.a(adc.c.o)
 .debug_ranges  0x00001788       0xb8 D:\projects\arduino\buildtemp\core\core.a(adc_f1.c.o)
 .debug_ranges  0x00001840       0x18 D:\projects\arduino\buildtemp\core\core.a(dma.c.o)
 .debug_ranges  0x00001858      0x1b8 D:\projects\arduino\buildtemp\core\core.a(dma_f1.c.o)
 .debug_ranges  0x00001a10      0x150 D:\projects\arduino\buildtemp\core\core.a(exti.c.o)
 .debug_ranges  0x00001b60       0x10 D:\projects\arduino\buildtemp\core\core.a(exti_f1.c.o)
 .debug_ranges  0x00001b70       0x10 D:\projects\arduino\buildtemp\core\core.a(flash.c.o)
 .debug_ranges  0x00001b80       0x30 D:\projects\arduino\buildtemp\core\core.a(gpio_f1.c.o)
 .debug_ranges  0x00001bb0       0x90 D:\projects\arduino\buildtemp\core\core.a(i2c_f1.c.o)
 .debug_ranges  0x00001c40       0x40 D:\projects\arduino\buildtemp\core\core.a(nvic.c.o)
 .debug_ranges  0x00001c80       0x98 D:\projects\arduino\buildtemp\core\core.a(rcc.c.o)
 .debug_ranges  0x00001d18       0xc8 D:\projects\arduino\buildtemp\core\core.a(rcc_f1.c.o)
 .debug_ranges  0x00001de0       0x80 D:\projects\arduino\buildtemp\core\core.a(spi.c.o)
 .debug_ranges  0x00001e60       0x18 D:\projects\arduino\buildtemp\core\core.a(spi_f1.c.o)
 .debug_ranges  0x00001e78       0x48 D:\projects\arduino\buildtemp\core\core.a(systick.c.o)
 .debug_ranges  0x00001ec0       0xe0 D:\projects\arduino\buildtemp\core\core.a(timer.c.o)
 .debug_ranges  0x00001fa0       0xd0 D:\projects\arduino\buildtemp\core\core.a(usart.c.o)
 .debug_ranges  0x00002070       0x68 D:\projects\arduino\buildtemp\core\core.a(usart_f1.c.o)
 .debug_ranges  0x000020d8       0x10 D:\projects\arduino\buildtemp\core\core.a(usart_private.c.o)
 .debug_ranges  0x000020e8       0xa8 D:\projects\arduino\buildtemp\core\core.a(usb.c.o)
 .debug_ranges  0x00002190      0x238 D:\projects\arduino\buildtemp\core\core.a(usb_cdcacm.c.o)
 .debug_ranges  0x000023c8       0x60 D:\projects\arduino\buildtemp\core\core.a(usb_reg_map.c.o)
 .debug_ranges  0x00002428       0xc0 D:\projects\arduino\buildtemp\core\core.a(usb_core.c.o)
 .debug_ranges  0x000024e8       0x10 D:\projects\arduino\buildtemp\core\core.a(usb_init.c.o)
 .debug_ranges  0x000024f8       0x18 D:\projects\arduino\buildtemp\core\core.a(usb_mem.c.o)
 .debug_ranges  0x00002510      0x290 D:\projects\arduino\buildtemp\core\core.a(usb_regs.c.o)
 .debug_ranges  0x000027a0       0x58 D:\projects\arduino\buildtemp\core\core.a(util.c.o)
 .debug_ranges  0x000027f8       0x18 D:\projects\arduino\buildtemp\core\core.a(main.cpp.o)
 .debug_ranges  0x00002810       0x30 D:\projects\arduino\buildtemp\core\core.a(pwm.cpp.o)
 .debug_ranges  0x00002840       0x30 D:\projects\arduino\buildtemp\core\core.a(wirish_digital_f1.cpp.o)
 .debug_ranges  0x00002870      0x140 D:\projects\arduino\buildtemp\core\core.a(usb_serial.cpp.o)
 .debug_ranges  0x000029b0       0x50 D:\projects\arduino\buildtemp\core\core.a(wirish_digital.cpp.o)
 .debug_ranges  0x00002a00       0x30 D:\projects\arduino\buildtemp\core\core.a(bkp_f1.c.o)
 .debug_ranges  0x00002a30       0x10 D:\projects\arduino\buildtemp\core\core.a(gpio.c.o)
 .debug_ranges  0x00002a40      0x188 D:\projects\arduino\buildtemp\core\core.a(i2c.c.o)

.comment        0x00000000       0x70
 .comment       0x00000000       0x70 D:\projects\arduino\buildtemp\sketch\Stylish.pde.cpp.o
                                 0x71 (size before relaxing)
 .comment       0x00000000       0x71 D:\projects\arduino\buildtemp\sketch\flashwriter.cpp.o
 .comment       0x00000000       0x71 D:\projects\arduino\buildtemp\sketch\rgb.cpp.o
 .comment       0x00000000       0x71 D:\projects\arduino\buildtemp\libraries\WS2812B\WS2812B.cpp.o
 .comment       0x00000000       0x71 D:\projects\arduino\buildtemp\libraries\Mozzi-master\MozziGuts.cpp.o
 .comment       0x00000000       0x71 D:\projects\arduino\buildtemp\libraries\Mozzi-master\mozzi_analog.cpp.o
 .comment       0x00000000       0x71 D:\projects\arduino\buildtemp\libraries\Mozzi-master\mozzi_fixmath.cpp.o
 .comment       0x00000000       0x71 D:\projects\arduino\buildtemp\libraries\Mozzi-master\mozzi_midi.cpp.o
 .comment       0x00000000       0x71 D:\projects\arduino\buildtemp\libraries\Mozzi-master\mozzi_rand.cpp.o
 .comment       0x00000000       0x71 D:\projects\arduino\buildtemp\libraries\Mozzi-master\mozzi_utils.cpp.o
 .comment       0x00000000       0x71 D:\projects\arduino\buildtemp\libraries\Mozzi-master\twi_nonblock.cpp.o
 .comment       0x00000000       0x71 D:\projects\arduino\buildtemp\libraries\Mozzi-master\utility\FrequencyTimer2.cpp.o
 .comment       0x00000000       0x71 D:\projects\arduino\buildtemp\libraries\Mozzi-master\utility\TimerOne.cpp.o
 .comment       0x00000000       0x71 D:\projects\arduino\buildtemp\libraries\Mozzi-master\utility\TimerZero.cpp.o
 .comment       0x00000000       0x71 D:\projects\arduino\buildtemp\libraries\SPI\SPI.cpp.o
 .comment       0x00000000       0x71 D:\projects\arduino\buildtemp\libraries\STM32ADC\STM32ADC.cpp.o
 .comment       0x00000000       0x71 D:\projects\arduino\buildtemp\libraries\STM32ADC\utility\util_adc.c.o
 .comment       0x00000000       0x71 D:\projects\arduino\buildtemp\core\board.cpp.o
 .comment       0x00000000       0x71 D:\projects\arduino\buildtemp\core\wirish\boards.cpp.o
 .comment       0x00000000       0x71 D:\projects\arduino\buildtemp\core\wirish\boards_setup.cpp.o
 .comment       0x00000000       0x71 D:\projects\arduino\buildtemp\core\wirish\start_c.c.o
 .comment       0x00000000       0x71 D:\projects\arduino\buildtemp\core\wirish\syscalls.c.o
 .comment       0x00000000       0x71 D:\projects\arduino\buildtemp\core\core.a(HardwareSerial.cpp.o)
 .comment       0x00000000       0x71 D:\projects\arduino\buildtemp\core\core.a(HardwareTimer.cpp.o)
 .comment       0x00000000       0x71 D:\projects\arduino\buildtemp\core\core.a(Print.cpp.o)
 .comment       0x00000000       0x71 D:\projects\arduino\buildtemp\core\core.a(cxxabi-compat.cpp.o)
 .comment       0x00000000       0x71 D:\projects\arduino\buildtemp\core\core.a(adc.c.o)
 .comment       0x00000000       0x71 D:\projects\arduino\buildtemp\core\core.a(adc_f1.c.o)
 .comment       0x00000000       0x71 D:\projects\arduino\buildtemp\core\core.a(dma.c.o)
 .comment       0x00000000       0x71 D:\projects\arduino\buildtemp\core\core.a(dma_f1.c.o)
 .comment       0x00000000       0x71 D:\projects\arduino\buildtemp\core\core.a(exti.c.o)
 .comment       0x00000000       0x71 D:\projects\arduino\buildtemp\core\core.a(exti_f1.c.o)
 .comment       0x00000000       0x71 D:\projects\arduino\buildtemp\core\core.a(flash.c.o)
 .comment       0x00000000       0x71 D:\projects\arduino\buildtemp\core\core.a(gpio_f1.c.o)
 .comment       0x00000000       0x71 D:\projects\arduino\buildtemp\core\core.a(i2c_f1.c.o)
 .comment       0x00000000       0x71 D:\projects\arduino\buildtemp\core\core.a(nvic.c.o)
 .comment       0x00000000       0x71 D:\projects\arduino\buildtemp\core\core.a(rcc.c.o)
 .comment       0x00000000       0x71 D:\projects\arduino\buildtemp\core\core.a(rcc_f1.c.o)
 .comment       0x00000000       0x71 D:\projects\arduino\buildtemp\core\core.a(spi.c.o)
 .comment       0x00000000       0x71 D:\projects\arduino\buildtemp\core\core.a(spi_f1.c.o)
 .comment       0x00000000       0x71 D:\projects\arduino\buildtemp\core\core.a(systick.c.o)
 .comment       0x00000000       0x71 D:\projects\arduino\buildtemp\core\core.a(timer.c.o)
 .comment       0x00000000       0x71 D:\projects\arduino\buildtemp\core\core.a(usart.c.o)
 .comment       0x00000000       0x71 D:\projects\arduino\buildtemp\core\core.a(usart_f1.c.o)
 .comment       0x00000000       0x71 D:\projects\arduino\buildtemp\core\core.a(usart_private.c.o)
 .comment       0x00000000       0x71 D:\projects\arduino\buildtemp\core\core.a(usb.c.o)
 .comment       0x00000000       0x71 D:\projects\arduino\buildtemp\core\core.a(usb_cdcacm.c.o)
 .comment       0x00000000       0x71 D:\projects\arduino\buildtemp\core\core.a(usb_reg_map.c.o)
 .comment       0x00000000       0x71 D:\projects\arduino\buildtemp\core\core.a(usb_core.c.o)
 .comment       0x00000000       0x71 D:\projects\arduino\buildtemp\core\core.a(usb_init.c.o)
 .comment       0x00000000       0x71 D:\projects\arduino\buildtemp\core\core.a(usb_mem.c.o)
 .comment       0x00000000       0x71 D:\projects\arduino\buildtemp\core\core.a(usb_regs.c.o)
 .comment       0x00000000       0x71 D:\projects\arduino\buildtemp\core\core.a(util.c.o)
 .comment       0x00000000       0x71 D:\projects\arduino\buildtemp\core\core.a(main.cpp.o)
 .comment       0x00000000       0x71 D:\projects\arduino\buildtemp\core\core.a(pwm.cpp.o)
 .comment       0x00000000       0x71 D:\projects\arduino\buildtemp\core\core.a(wirish_digital_f1.cpp.o)
 .comment       0x00000000       0x71 D:\projects\arduino\buildtemp\core\core.a(usb_serial.cpp.o)
 .comment       0x00000000       0x71 D:\projects\arduino\buildtemp\core\core.a(wirish_digital.cpp.o)
 .comment       0x00000000       0x71 D:\projects\arduino\buildtemp\core\core.a(bkp_f1.c.o)
 .comment       0x00000000       0x71 D:\projects\arduino\buildtemp\core\core.a(gpio.c.o)
 .comment       0x00000000       0x71 D:\projects\arduino\buildtemp\core\core.a(i2c.c.o)

Cross Reference Table

Symbol                                            File
ADC1                                              D:\projects\arduino\buildtemp\core\core.a(adc_f1.c.o)
                                                  D:\projects\arduino\buildtemp\libraries\STM32ADC\STM32ADC.cpp.o
                                                  D:\projects\arduino\buildtemp\libraries\Mozzi-master\MozziGuts.cpp.o
ADC2                                              D:\projects\arduino\buildtemp\core\core.a(adc_f1.c.o)
ADSR<256u, 256u>::checkForAndSetNextPhase(ADSR<256u, 256u>::phase*) D:\projects\arduino\buildtemp\sketch\Stylish.pde.cpp.o
ADSR<256u, 256u>::setPhase(ADSR<256u, 256u>::phase*) D:\projects\arduino\buildtemp\sketch\Stylish.pde.cpp.o
AnimPixelAddRange(unsigned char, unsigned char, rgb_t const&) D:\projects\arduino\buildtemp\sketch\Stylish.pde.cpp.o
AnimPixelAddValue(unsigned char, unsigned char, rgb_t const&, rgb_t const&) D:\projects\arduino\buildtemp\sketch\Stylish.pde.cpp.o
AnimPixelSet(unsigned char, rgb_t&)               D:\projects\arduino\buildtemp\sketch\Stylish.pde.cpp.o
AnimPixelsClear()                                 D:\projects\arduino\buildtemp\sketch\Stylish.pde.cpp.o
AnimPixelsFadeSub(unsigned char)                  D:\projects\arduino\buildtemp\sketch\Stylish.pde.cpp.o
AnimPixelsSpread(unsigned short)                  D:\projects\arduino\buildtemp\sketch\Stylish.pde.cpp.o
AnimSetStrip()                                    D:\projects\arduino\buildtemp\sketch\Stylish.pde.cpp.o
AnimUpdate()                                      D:\projects\arduino\buildtemp\sketch\Stylish.pde.cpp.o
BKP                                               D:\projects\arduino\buildtemp\core\core.a(bkp_f1.c.o)
BPMtoMillis(float)                                D:\projects\arduino\buildtemp\libraries\Mozzi-master\mozzi_utils.cpp.o
ByteSwap                                          D:\projects\arduino\buildtemp\core\core.a(usb_regs.c.o)
ClearDTOG_RX                                      D:\projects\arduino\buildtemp\core\core.a(usb_regs.c.o)
                                                  D:\projects\arduino\buildtemp\core\core.a(usb_core.c.o)
ClearDTOG_TX                                      D:\projects\arduino\buildtemp\core\core.a(usb_regs.c.o)
                                                  D:\projects\arduino\buildtemp\core\core.a(usb_core.c.o)
ClearEPDoubleBuff                                 D:\projects\arduino\buildtemp\core\core.a(usb_regs.c.o)
ClearEP_CTR_RX                                    D:\projects\arduino\buildtemp\core\core.a(usb_regs.c.o)
ClearEP_CTR_TX                                    D:\projects\arduino\buildtemp\core\core.a(usb_regs.c.o)
ClearEP_KIND                                      D:\projects\arduino\buildtemp\core\core.a(usb_regs.c.o)
Clear_Status_Out                                  D:\projects\arduino\buildtemp\core\core.a(usb_regs.c.o)
DMA1                                              D:\projects\arduino\buildtemp\core\core.a(dma_f1.c.o)
                                                  D:\projects\arduino\buildtemp\libraries\STM32ADC\STM32ADC.cpp.o
                                                  D:\projects\arduino\buildtemp\libraries\SPI\SPI.cpp.o
Data_Mul_MaxPacketSize                            D:\projects\arduino\buildtemp\core\core.a(usb_core.c.o)
Device_Info                                       D:\projects\arduino\buildtemp\core\core.a(usb_init.c.o)
                                                  D:\projects\arduino\buildtemp\core\core.a(usb.c.o)
Device_Property                                   D:\projects\arduino\buildtemp\core\core.a(usb_cdcacm.c.o)
                                                  D:\projects\arduino\buildtemp\core\core.a(usb_init.c.o)
                                                  D:\projects\arduino\buildtemp\core\core.a(usb_core.c.o)
                                                  D:\projects\arduino\buildtemp\core\core.a(usb.c.o)
Device_Table                                      D:\projects\arduino\buildtemp\core\core.a(usb_cdcacm.c.o)
                                                  D:\projects\arduino\buildtemp\core\core.a(usb_core.c.o)
EPindex                                           D:\projects\arduino\buildtemp\core\core.a(usb_init.c.o)
FinalizeUIValue()                                 D:\projects\arduino\buildtemp\sketch\Stylish.pde.cpp.o
FlashAddress                                      D:\projects\arduino\buildtemp\sketch\Stylish.pde.cpp.o
FreeUserBuffer                                    D:\projects\arduino\buildtemp\core\core.a(usb_regs.c.o)
GPIOA                                             D:\projects\arduino\buildtemp\core\core.a(gpio_f1.c.o)
GPIOB                                             D:\projects\arduino\buildtemp\core\core.a(gpio_f1.c.o)
GPIOC                                             D:\projects\arduino\buildtemp\core\core.a(gpio_f1.c.o)
                                                  D:\projects\arduino\buildtemp\core\core.a(util.c.o)
GPIOD                                             D:\projects\arduino\buildtemp\core\core.a(gpio_f1.c.o)
GetBTABLE                                         D:\projects\arduino\buildtemp\core\core.a(usb_regs.c.o)
GetCNTR                                           D:\projects\arduino\buildtemp\core\core.a(usb_regs.c.o)
GetDADDR                                          D:\projects\arduino\buildtemp\core\core.a(usb_regs.c.o)
GetENDPOINT                                       D:\projects\arduino\buildtemp\core\core.a(usb_regs.c.o)
GetEPAddress                                      D:\projects\arduino\buildtemp\core\core.a(usb_regs.c.o)
GetEPDblBuf0Addr                                  D:\projects\arduino\buildtemp\core\core.a(usb_regs.c.o)
GetEPDblBuf0Count                                 D:\projects\arduino\buildtemp\core\core.a(usb_regs.c.o)
GetEPDblBuf1Addr                                  D:\projects\arduino\buildtemp\core\core.a(usb_regs.c.o)
GetEPDblBuf1Count                                 D:\projects\arduino\buildtemp\core\core.a(usb_regs.c.o)
GetEPDblBufDir                                    D:\projects\arduino\buildtemp\core\core.a(usb_regs.c.o)
GetEPRxAddr                                       D:\projects\arduino\buildtemp\core\core.a(usb_regs.c.o)
                                                  D:\projects\arduino\buildtemp\core\core.a(usb_core.c.o)
GetEPRxCount                                      D:\projects\arduino\buildtemp\core\core.a(usb_regs.c.o)
GetEPRxStatus                                     D:\projects\arduino\buildtemp\core\core.a(usb_regs.c.o)
GetEPTxAddr                                       D:\projects\arduino\buildtemp\core\core.a(usb_regs.c.o)
                                                  D:\projects\arduino\buildtemp\core\core.a(usb_core.c.o)
GetEPTxCount                                      D:\projects\arduino\buildtemp\core\core.a(usb_regs.c.o)
GetEPTxStatus                                     D:\projects\arduino\buildtemp\core\core.a(usb_regs.c.o)
GetEPType                                         D:\projects\arduino\buildtemp\core\core.a(usb_regs.c.o)
GetFNR                                            D:\projects\arduino\buildtemp\core\core.a(usb_regs.c.o)
GetISTR                                           D:\projects\arduino\buildtemp\core\core.a(usb_regs.c.o)
GetRxStallStatus                                  D:\projects\arduino\buildtemp\core\core.a(usb_regs.c.o)
GetStylusKeyBits()                                D:\projects\arduino\buildtemp\sketch\Stylish.pde.cpp.o
GetStylusKeyDown()                                D:\projects\arduino\buildtemp\sketch\Stylish.pde.cpp.o
GetTxStallStatus                                  D:\projects\arduino\buildtemp\core\core.a(usb_regs.c.o)
GetUIValue()                                      D:\projects\arduino\buildtemp\sketch\Stylish.pde.cpp.o
Get_UI_State(bool)                                D:\projects\arduino\buildtemp\sketch\Stylish.pde.cpp.o
Get_UI_SubState(bool)                             D:\projects\arduino\buildtemp\sketch\Stylish.pde.cpp.o
HardwareSerial::HardwareSerial(usart_dev*, unsigned char, unsigned char) D:\projects\arduino\buildtemp\core\core.a(HardwareSerial.cpp.o)
HardwareSerial::HardwareSerial(usart_dev*, unsigned char, unsigned char) D:\projects\arduino\buildtemp\core\core.a(HardwareSerial.cpp.o)
                                                  D:\projects\arduino\buildtemp\core\board.cpp.o
HardwareSerial::available()                       D:\projects\arduino\buildtemp\core\core.a(HardwareSerial.cpp.o)
HardwareSerial::availableForWrite()               D:\projects\arduino\buildtemp\core\core.a(HardwareSerial.cpp.o)
HardwareSerial::begin(unsigned long)              D:\projects\arduino\buildtemp\core\core.a(HardwareSerial.cpp.o)
HardwareSerial::begin(unsigned long, unsigned char) D:\projects\arduino\buildtemp\core\core.a(HardwareSerial.cpp.o)
HardwareSerial::end()                             D:\projects\arduino\buildtemp\core\core.a(HardwareSerial.cpp.o)
HardwareSerial::flush()                           D:\projects\arduino\buildtemp\core\core.a(HardwareSerial.cpp.o)
HardwareSerial::peek()                            D:\projects\arduino\buildtemp\core\core.a(HardwareSerial.cpp.o)
HardwareSerial::read()                            D:\projects\arduino\buildtemp\core\core.a(HardwareSerial.cpp.o)
HardwareSerial::write(unsigned char)              D:\projects\arduino\buildtemp\core\core.a(HardwareSerial.cpp.o)
HardwareTimer::HardwareTimer(unsigned char)       D:\projects\arduino\buildtemp\core\core.a(HardwareTimer.cpp.o)
                                                  D:\projects\arduino\buildtemp\libraries\Mozzi-master\MozziGuts.cpp.o
HardwareTimer::HardwareTimer(unsigned char)       D:\projects\arduino\buildtemp\core\core.a(HardwareTimer.cpp.o)
HardwareTimer::attachInterrupt(int, void (*)())   D:\projects\arduino\buildtemp\core\core.a(HardwareTimer.cpp.o)
                                                  D:\projects\arduino\buildtemp\libraries\Mozzi-master\MozziGuts.cpp.o
HardwareTimer::detachInterrupt(int)               D:\projects\arduino\buildtemp\core\core.a(HardwareTimer.cpp.o)
HardwareTimer::disableDMA(int)                    D:\projects\arduino\buildtemp\core\core.a(HardwareTimer.cpp.o)
HardwareTimer::enableDMA(int)                     D:\projects\arduino\buildtemp\core\core.a(HardwareTimer.cpp.o)
HardwareTimer::getCompare(int)                    D:\projects\arduino\buildtemp\core\core.a(HardwareTimer.cpp.o)
HardwareTimer::getCount()                         D:\projects\arduino\buildtemp\core\core.a(HardwareTimer.cpp.o)
HardwareTimer::getOverflow()                      D:\projects\arduino\buildtemp\core\core.a(HardwareTimer.cpp.o)
HardwareTimer::getPrescaleFactor()                D:\projects\arduino\buildtemp\core\core.a(HardwareTimer.cpp.o)
HardwareTimer::pause()                            D:\projects\arduino\buildtemp\core\core.a(HardwareTimer.cpp.o)
                                                  D:\projects\arduino\buildtemp\libraries\Mozzi-master\MozziGuts.cpp.o
HardwareTimer::refresh()                          D:\projects\arduino\buildtemp\core\core.a(HardwareTimer.cpp.o)
                                                  D:\projects\arduino\buildtemp\libraries\Mozzi-master\MozziGuts.cpp.o
HardwareTimer::resume()                           D:\projects\arduino\buildtemp\core\core.a(HardwareTimer.cpp.o)
                                                  D:\projects\arduino\buildtemp\libraries\Mozzi-master\MozziGuts.cpp.o
HardwareTimer::setCompare(int, unsigned short)    D:\projects\arduino\buildtemp\core\core.a(HardwareTimer.cpp.o)
                                                  D:\projects\arduino\buildtemp\libraries\Mozzi-master\MozziGuts.cpp.o
HardwareTimer::setCount(unsigned short)           D:\projects\arduino\buildtemp\core\core.a(HardwareTimer.cpp.o)
HardwareTimer::setMasterModeTrGo(unsigned long)   D:\projects\arduino\buildtemp\core\core.a(HardwareTimer.cpp.o)
HardwareTimer::setMode(int, timer_mode)           D:\projects\arduino\buildtemp\core\core.a(HardwareTimer.cpp.o)
                                                  D:\projects\arduino\buildtemp\libraries\Mozzi-master\MozziGuts.cpp.o
HardwareTimer::setOverflow(unsigned short)        D:\projects\arduino\buildtemp\core\core.a(HardwareTimer.cpp.o)
                                                  D:\projects\arduino\buildtemp\libraries\Mozzi-master\MozziGuts.cpp.o
HardwareTimer::setPeriod(unsigned long)           D:\projects\arduino\buildtemp\core\core.a(HardwareTimer.cpp.o)
                                                  D:\projects\arduino\buildtemp\libraries\Mozzi-master\MozziGuts.cpp.o
HardwareTimer::setPrescaleFactor(unsigned long)   D:\projects\arduino\buildtemp\core\core.a(HardwareTimer.cpp.o)
                                                  D:\projects\arduino\buildtemp\libraries\Mozzi-master\MozziGuts.cpp.o
I2C1                                              D:\projects\arduino\buildtemp\core\core.a(i2c_f1.c.o)
                                                  D:\projects\arduino\buildtemp\core\core.a(i2c.c.o)
I2C2                                              D:\projects\arduino\buildtemp\core\core.a(i2c_f1.c.o)
In0_Process                                       D:\projects\arduino\buildtemp\core\core.a(usb_core.c.o)
                                                  D:\projects\arduino\buildtemp\core\core.a(usb.c.o)
KeyDownCallback                                   D:\projects\arduino\buildtemp\sketch\Stylish.pde.cpp.o
KeyUpCallback                                     D:\projects\arduino\buildtemp\sketch\Stylish.pde.cpp.o
LocalPatchData                                    D:\projects\arduino\buildtemp\sketch\Stylish.pde.cpp.o
LocalPatchDataBackup                              D:\projects\arduino\buildtemp\sketch\Stylish.pde.cpp.o
MAGIC                                             D:\projects\arduino\buildtemp\sketch\Stylish.pde.cpp.o
MapValToByte(unsigned char, unsigned char, unsigned char) D:\projects\arduino\buildtemp\sketch\Stylish.pde.cpp.o
ModeData                                          D:\projects\arduino\buildtemp\sketch\Stylish.pde.cpp.o
NOP_Process                                       D:\projects\arduino\buildtemp\core\core.a(usb_core.c.o)
                                                  D:\projects\arduino\buildtemp\core\core.a(usb_cdcacm.c.o)
NextStateDoneSelectingUp()                        D:\projects\arduino\buildtemp\sketch\Stylish.pde.cpp.o
NextStateFirstStage()                             D:\projects\arduino\buildtemp\sketch\Stylish.pde.cpp.o
Noise()                                           D:\projects\arduino\buildtemp\sketch\Stylish.pde.cpp.o
Oscil<(unsigned short)2048, (unsigned short)16384>::next() D:\projects\arduino\buildtemp\sketch\Stylish.pde.cpp.o
Out0_Process                                      D:\projects\arduino\buildtemp\core\core.a(usb_core.c.o)
                                                  D:\projects\arduino\buildtemp\core\core.a(usb.c.o)
PIN_MAP                                           D:\projects\arduino\buildtemp\core\board.cpp.o
                                                  D:\projects\arduino\buildtemp\core\core.a(wirish_digital.cpp.o)
                                                  D:\projects\arduino\buildtemp\core\core.a(wirish_digital_f1.cpp.o)
                                                  D:\projects\arduino\buildtemp\core\core.a(pwm.cpp.o)
                                                  D:\projects\arduino\buildtemp\core\core.a(HardwareSerial.cpp.o)
                                                  D:\projects\arduino\buildtemp\core\wirish\boards_setup.cpp.o
                                                  D:\projects\arduino\buildtemp\libraries\STM32ADC\STM32ADC.cpp.o
                                                  D:\projects\arduino\buildtemp\libraries\SPI\SPI.cpp.o
PMAToUserBufferCopy                               D:\projects\arduino\buildtemp\core\core.a(usb_mem.c.o)
                                                  D:\projects\arduino\buildtemp\core\core.a(usb_core.c.o)
Patch                                             D:\projects\arduino\buildtemp\sketch\Stylish.pde.cpp.o
Post0_Process                                     D:\projects\arduino\buildtemp\core\core.a(usb_core.c.o)
Print::print(Printable const&)                    D:\projects\arduino\buildtemp\core\core.a(Print.cpp.o)
Print::print(String const&)                       D:\projects\arduino\buildtemp\core\core.a(Print.cpp.o)
Print::print(__FlashStringHelper const*)          D:\projects\arduino\buildtemp\core\core.a(Print.cpp.o)
Print::print(char const*)                         D:\projects\arduino\buildtemp\core\core.a(Print.cpp.o)
                                                  D:\projects\arduino\buildtemp\sketch\Stylish.pde.cpp.o
Print::print(char)                                D:\projects\arduino\buildtemp\core\core.a(Print.cpp.o)
Print::print(double, int)                         D:\projects\arduino\buildtemp\core\core.a(Print.cpp.o)
Print::print(int, int)                            D:\projects\arduino\buildtemp\core\core.a(Print.cpp.o)
Print::print(long long, int)                      D:\projects\arduino\buildtemp\core\core.a(Print.cpp.o)
Print::print(long, int)                           D:\projects\arduino\buildtemp\core\core.a(Print.cpp.o)
Print::print(unsigned char, int)                  D:\projects\arduino\buildtemp\core\core.a(Print.cpp.o)
                                                  D:\projects\arduino\buildtemp\sketch\Stylish.pde.cpp.o
Print::print(unsigned int, int)                   D:\projects\arduino\buildtemp\core\core.a(Print.cpp.o)
Print::print(unsigned long long, int)             D:\projects\arduino\buildtemp\core\core.a(Print.cpp.o)
                                                  D:\projects\arduino\buildtemp\sketch\Stylish.pde.cpp.o
Print::print(unsigned long, int)                  D:\projects\arduino\buildtemp\core\core.a(Print.cpp.o)
Print::printDigit(unsigned char, bool)            D:\projects\arduino\buildtemp\core\core.a(Print.cpp.o)
Print::printFloat(double, unsigned char)          D:\projects\arduino\buildtemp\core\core.a(Print.cpp.o)
Print::printNumber(unsigned long long, unsigned char) D:\projects\arduino\buildtemp\core\core.a(Print.cpp.o)
Print::printf(char const*, ...)                   D:\projects\arduino\buildtemp\core\core.a(Print.cpp.o)
                                                  D:\projects\arduino\buildtemp\sketch\Stylish.pde.cpp.o
Print::println()                                  D:\projects\arduino\buildtemp\core\core.a(Print.cpp.o)
Print::println(Printable const&)                  D:\projects\arduino\buildtemp\core\core.a(Print.cpp.o)
Print::println(String const&)                     D:\projects\arduino\buildtemp\core\core.a(Print.cpp.o)
Print::println(__FlashStringHelper const*)        D:\projects\arduino\buildtemp\core\core.a(Print.cpp.o)
Print::println(char const*)                       D:\projects\arduino\buildtemp\core\core.a(Print.cpp.o)
                                                  D:\projects\arduino\buildtemp\sketch\Stylish.pde.cpp.o
Print::println(char)                              D:\projects\arduino\buildtemp\core\core.a(Print.cpp.o)
Print::println(double, int)                       D:\projects\arduino\buildtemp\core\core.a(Print.cpp.o)
Print::println(int, int)                          D:\projects\arduino\buildtemp\core\core.a(Print.cpp.o)
                                                  D:\projects\arduino\buildtemp\sketch\Stylish.pde.cpp.o
Print::println(long long, int)                    D:\projects\arduino\buildtemp\core\core.a(Print.cpp.o)
Print::println(long, int)                         D:\projects\arduino\buildtemp\core\core.a(Print.cpp.o)
Print::println(unsigned char, int)                D:\projects\arduino\buildtemp\core\core.a(Print.cpp.o)
Print::println(unsigned int, int)                 D:\projects\arduino\buildtemp\core\core.a(Print.cpp.o)
Print::println(unsigned long long, int)           D:\projects\arduino\buildtemp\core\core.a(Print.cpp.o)
Print::println(unsigned long, int)                D:\projects\arduino\buildtemp\core\core.a(Print.cpp.o)
                                                  D:\projects\arduino\buildtemp\sketch\Stylish.pde.cpp.o
Print::write(char const*)                         D:\projects\arduino\buildtemp\core\core.a(Print.cpp.o)
                                                  D:\projects\arduino\buildtemp\core\core.a(usb_serial.cpp.o)
                                                  D:\projects\arduino\buildtemp\core\core.a(HardwareSerial.cpp.o)
Print::write(void const*, unsigned long)          D:\projects\arduino\buildtemp\core\core.a(Print.cpp.o)
                                                  D:\projects\arduino\buildtemp\core\core.a(usb_serial.cpp.o)
                                                  D:\projects\arduino\buildtemp\core\core.a(HardwareSerial.cpp.o)
Q16n16_mtof(unsigned long)                        D:\projects\arduino\buildtemp\libraries\Mozzi-master\mozzi_midi.cpp.o
Q16n16_pow2(unsigned short)                       D:\projects\arduino\buildtemp\libraries\Mozzi-master\mozzi_fixmath.cpp.o
Rainbow(unsigned char, unsigned char)             D:\projects\arduino\buildtemp\sketch\Stylish.pde.cpp.o
ReadPatchesFromFlash()                            D:\projects\arduino\buildtemp\sketch\Stylish.pde.cpp.o
ReceiveKeyDown(unsigned char)                     D:\projects\arduino\buildtemp\sketch\Stylish.pde.cpp.o
ReceiveKeyUp(unsigned char)                       D:\projects\arduino\buildtemp\sketch\Stylish.pde.cpp.o
RestoreUIValue()                                  D:\projects\arduino\buildtemp\sketch\Stylish.pde.cpp.o
ResumeS                                           D:\projects\arduino\buildtemp\core\core.a(usb.c.o)
SPI                                               D:\projects\arduino\buildtemp\libraries\SPI\SPI.cpp.o
                                                  D:\projects\arduino\buildtemp\libraries\WS2812B\WS2812B.cpp.o
SPI1                                              D:\projects\arduino\buildtemp\core\core.a(spi_f1.c.o)
                                                  D:\projects\arduino\buildtemp\libraries\SPI\SPI.cpp.o
SPI2                                              D:\projects\arduino\buildtemp\core\core.a(spi_f1.c.o)
                                                  D:\projects\arduino\buildtemp\libraries\SPI\SPI.cpp.o
SPIClass::EventCallback()                         D:\projects\arduino\buildtemp\libraries\SPI\SPI.cpp.o
SPIClass::SPIClass(unsigned long)                 D:\projects\arduino\buildtemp\libraries\SPI\SPI.cpp.o
SPIClass::SPIClass(unsigned long)                 D:\projects\arduino\buildtemp\libraries\SPI\SPI.cpp.o
SPIClass::_spi1EventCallback()                    D:\projects\arduino\buildtemp\libraries\SPI\SPI.cpp.o
SPIClass::_spi2EventCallback()                    D:\projects\arduino\buildtemp\libraries\SPI\SPI.cpp.o
SPIClass::attachInterrupt()                       D:\projects\arduino\buildtemp\libraries\SPI\SPI.cpp.o
SPIClass::begin()                                 D:\projects\arduino\buildtemp\libraries\SPI\SPI.cpp.o
                                                  D:\projects\arduino\buildtemp\libraries\WS2812B\WS2812B.cpp.o
SPIClass::beginSlave()                            D:\projects\arduino\buildtemp\libraries\SPI\SPI.cpp.o
SPIClass::beginTransaction(unsigned char, SPISettings) D:\projects\arduino\buildtemp\libraries\SPI\SPI.cpp.o
SPIClass::beginTransactionSlave(SPISettings)      D:\projects\arduino\buildtemp\libraries\SPI\SPI.cpp.o
SPIClass::detachInterrupt()                       D:\projects\arduino\buildtemp\libraries\SPI\SPI.cpp.o
SPIClass::dmaSend(void const*, unsigned short, bool) D:\projects\arduino\buildtemp\libraries\SPI\SPI.cpp.o
SPIClass::dmaSendAsync(void const*, unsigned short, bool) D:\projects\arduino\buildtemp\libraries\SPI\SPI.cpp.o
                                                  D:\projects\arduino\buildtemp\libraries\WS2812B\WS2812B.cpp.o
SPIClass::dmaSendRepeat(unsigned short)           D:\projects\arduino\buildtemp\libraries\SPI\SPI.cpp.o
SPIClass::dmaSendSet(void const*, bool)           D:\projects\arduino\buildtemp\libraries\SPI\SPI.cpp.o
SPIClass::dmaTransfer(void const*, void*, unsigned short) D:\projects\arduino\buildtemp\libraries\SPI\SPI.cpp.o
SPIClass::dmaTransferRepeat(unsigned short)       D:\projects\arduino\buildtemp\libraries\SPI\SPI.cpp.o
SPIClass::dmaTransferSet(void const*, void*)      D:\projects\arduino\buildtemp\libraries\SPI\SPI.cpp.o
SPIClass::end()                                   D:\projects\arduino\buildtemp\libraries\SPI\SPI.cpp.o
                                                  D:\projects\arduino\buildtemp\libraries\WS2812B\WS2812B.cpp.o
SPIClass::endTransaction()                        D:\projects\arduino\buildtemp\libraries\SPI\SPI.cpp.o
SPIClass::misoPin()                               D:\projects\arduino\buildtemp\libraries\SPI\SPI.cpp.o
SPIClass::mosiPin()                               D:\projects\arduino\buildtemp\libraries\SPI\SPI.cpp.o
SPIClass::nssPin()                                D:\projects\arduino\buildtemp\libraries\SPI\SPI.cpp.o
SPIClass::onReceive(void (*)())                   D:\projects\arduino\buildtemp\libraries\SPI\SPI.cpp.o
SPIClass::onTransmit(void (*)())                  D:\projects\arduino\buildtemp\libraries\SPI\SPI.cpp.o
SPIClass::read()                                  D:\projects\arduino\buildtemp\libraries\SPI\SPI.cpp.o
SPIClass::read(unsigned char*, unsigned long)     D:\projects\arduino\buildtemp\libraries\SPI\SPI.cpp.o
SPIClass::recv()                                  D:\projects\arduino\buildtemp\libraries\SPI\SPI.cpp.o
SPIClass::sckPin()                                D:\projects\arduino\buildtemp\libraries\SPI\SPI.cpp.o
SPIClass::send(unsigned char)                     D:\projects\arduino\buildtemp\libraries\SPI\SPI.cpp.o
SPIClass::send(unsigned char*, unsigned long)     D:\projects\arduino\buildtemp\libraries\SPI\SPI.cpp.o
SPIClass::setBitOrder(BitOrder)                   D:\projects\arduino\buildtemp\libraries\SPI\SPI.cpp.o
SPIClass::setClockDivider(unsigned long)          D:\projects\arduino\buildtemp\libraries\SPI\SPI.cpp.o
                                                  D:\projects\arduino\buildtemp\libraries\WS2812B\WS2812B.cpp.o
SPIClass::setDataMode(unsigned char)              D:\projects\arduino\buildtemp\libraries\SPI\SPI.cpp.o
SPIClass::setDataSize(unsigned long)              D:\projects\arduino\buildtemp\libraries\SPI\SPI.cpp.o
SPIClass::transfer(unsigned char) const           D:\projects\arduino\buildtemp\libraries\SPI\SPI.cpp.o
SPIClass::transfer16(unsigned short) const        D:\projects\arduino\buildtemp\libraries\SPI\SPI.cpp.o
SPIClass::updateSettings()                        D:\projects\arduino\buildtemp\libraries\SPI\SPI.cpp.o
SPIClass::write(unsigned short)                   D:\projects\arduino\buildtemp\libraries\SPI\SPI.cpp.o
SPIClass::write(unsigned short, unsigned long)    D:\projects\arduino\buildtemp\libraries\SPI\SPI.cpp.o
SPIClass::write(void const*, unsigned long)       D:\projects\arduino\buildtemp\libraries\SPI\SPI.cpp.o
SPIClass::write16(unsigned short)                 D:\projects\arduino\buildtemp\libraries\SPI\SPI.cpp.o
STM32ADC::STM32ADC(adc_dev*)                      D:\projects\arduino\buildtemp\libraries\STM32ADC\STM32ADC.cpp.o
STM32ADC::STM32ADC(adc_dev*)                      D:\projects\arduino\buildtemp\libraries\STM32ADC\STM32ADC.cpp.o
                                                  D:\projects\arduino\buildtemp\libraries\Mozzi-master\MozziGuts.cpp.o
STM32ADC::attachAnalogWatchdogInterrupt(void (*)()) D:\projects\arduino\buildtemp\libraries\STM32ADC\STM32ADC.cpp.o
STM32ADC::attachDMAInterrupt(void (*)())          D:\projects\arduino\buildtemp\libraries\STM32ADC\STM32ADC.cpp.o
STM32ADC::attachInterrupt(void (*)(), unsigned char) D:\projects\arduino\buildtemp\libraries\STM32ADC\STM32ADC.cpp.o
                                                  D:\projects\arduino\buildtemp\libraries\Mozzi-master\mozzi_analog.cpp.o
STM32ADC::calibrate()                             D:\projects\arduino\buildtemp\libraries\STM32ADC\STM32ADC.cpp.o
                                                  D:\projects\arduino\buildtemp\libraries\Mozzi-master\mozzi_rand.cpp.o
                                                  D:\projects\arduino\buildtemp\libraries\Mozzi-master\mozzi_analog.cpp.o
STM32ADC::enableInternalReading()                 D:\projects\arduino\buildtemp\libraries\STM32ADC\STM32ADC.cpp.o
                                                  D:\projects\arduino\buildtemp\libraries\Mozzi-master\mozzi_rand.cpp.o
STM32ADC::getAnalogWatchdog()                     D:\projects\arduino\buildtemp\libraries\STM32ADC\STM32ADC.cpp.o
STM32ADC::getData()                               D:\projects\arduino\buildtemp\libraries\STM32ADC\STM32ADC.cpp.o
                                                  D:\projects\arduino\buildtemp\libraries\Mozzi-master\mozzi_analog.cpp.o
STM32ADC::readTemp()                              D:\projects\arduino\buildtemp\libraries\STM32ADC\STM32ADC.cpp.o
                                                  D:\projects\arduino\buildtemp\libraries\Mozzi-master\mozzi_rand.cpp.o
STM32ADC::readVcc()                               D:\projects\arduino\buildtemp\libraries\STM32ADC\STM32ADC.cpp.o
STM32ADC::resetContinuous()                       D:\projects\arduino\buildtemp\libraries\STM32ADC\STM32ADC.cpp.o
STM32ADC::setAnalogWatchdog(unsigned char, unsigned long, unsigned long) D:\projects\arduino\buildtemp\libraries\STM32ADC\STM32ADC.cpp.o
STM32ADC::setChannels(unsigned char*, unsigned char) D:\projects\arduino\buildtemp\libraries\STM32ADC\STM32ADC.cpp.o
STM32ADC::setContinuous()                         D:\projects\arduino\buildtemp\libraries\STM32ADC\STM32ADC.cpp.o
STM32ADC::setDMA(unsigned short*, unsigned short, unsigned long, void (*)()) D:\projects\arduino\buildtemp\libraries\STM32ADC\STM32ADC.cpp.o
STM32ADC::setDualDMA(unsigned long*, unsigned short, unsigned long) D:\projects\arduino\buildtemp\libraries\STM32ADC\STM32ADC.cpp.o
STM32ADC::setPins(unsigned char*, unsigned char)  D:\projects\arduino\buildtemp\libraries\STM32ADC\STM32ADC.cpp.o
                                                  D:\projects\arduino\buildtemp\libraries\Mozzi-master\mozzi_analog.cpp.o
STM32ADC::setSampleRate(adc_smp_rate)             D:\projects\arduino\buildtemp\libraries\STM32ADC\STM32ADC.cpp.o
                                                  D:\projects\arduino\buildtemp\libraries\Mozzi-master\mozzi_analog.cpp.o
STM32ADC::setScanMode()                           D:\projects\arduino\buildtemp\libraries\STM32ADC\STM32ADC.cpp.o
STM32ADC::setTrigger(adc_extsel_event)            D:\projects\arduino\buildtemp\libraries\STM32ADC\STM32ADC.cpp.o
STM32ADC::startConversion()                       D:\projects\arduino\buildtemp\libraries\STM32ADC\STM32ADC.cpp.o
                                                  D:\projects\arduino\buildtemp\libraries\Mozzi-master\mozzi_analog.cpp.o
SaveRState                                        D:\projects\arduino\buildtemp\core\core.a(usb_core.c.o)
                                                  D:\projects\arduino\buildtemp\core\core.a(usb.c.o)
SaveState                                         D:\projects\arduino\buildtemp\core\core.a(usb_init.c.o)
SaveTState                                        D:\projects\arduino\buildtemp\core\core.a(usb_core.c.o)
                                                  D:\projects\arduino\buildtemp\core\core.a(usb.c.o)
SaveUIValue()                                     D:\projects\arduino\buildtemp\sketch\Stylish.pde.cpp.o
Serial                                            D:\projects\arduino\buildtemp\core\core.a(usb_serial.cpp.o)
                                                  D:\projects\arduino\buildtemp\core\wirish\boards_setup.cpp.o
                                                  D:\projects\arduino\buildtemp\sketch\Stylish.pde.cpp.o
Serial1                                           D:\projects\arduino\buildtemp\core\board.cpp.o
Serial2                                           D:\projects\arduino\buildtemp\core\board.cpp.o
Serial3                                           D:\projects\arduino\buildtemp\core\board.cpp.o
SetBTABLE                                         D:\projects\arduino\buildtemp\core\core.a(usb_regs.c.o)
SetCNTR                                           D:\projects\arduino\buildtemp\core\core.a(usb_regs.c.o)
SetDADDR                                          D:\projects\arduino\buildtemp\core\core.a(usb_regs.c.o)
SetDeviceAddress                                  D:\projects\arduino\buildtemp\core\core.a(usb_core.c.o)
                                                  D:\projects\arduino\buildtemp\core\core.a(usb_cdcacm.c.o)
SetDouBleBuffEPStall                              D:\projects\arduino\buildtemp\core\core.a(usb_regs.c.o)
SetENDPOINT                                       D:\projects\arduino\buildtemp\core\core.a(usb_regs.c.o)
SetEPAddress                                      D:\projects\arduino\buildtemp\core\core.a(usb_regs.c.o)
SetEPCountRxReg                                   D:\projects\arduino\buildtemp\core\core.a(usb_regs.c.o)
SetEPDblBuf0Addr                                  D:\projects\arduino\buildtemp\core\core.a(usb_regs.c.o)
SetEPDblBuf0Count                                 D:\projects\arduino\buildtemp\core\core.a(usb_regs.c.o)
SetEPDblBuf1Addr                                  D:\projects\arduino\buildtemp\core\core.a(usb_regs.c.o)
SetEPDblBuf1Count                                 D:\projects\arduino\buildtemp\core\core.a(usb_regs.c.o)
SetEPDblBuffAddr                                  D:\projects\arduino\buildtemp\core\core.a(usb_regs.c.o)
SetEPDblBuffCount                                 D:\projects\arduino\buildtemp\core\core.a(usb_regs.c.o)
SetEPDoubleBuff                                   D:\projects\arduino\buildtemp\core\core.a(usb_regs.c.o)
SetEPRxAddr                                       D:\projects\arduino\buildtemp\core\core.a(usb_regs.c.o)
SetEPRxCount                                      D:\projects\arduino\buildtemp\core\core.a(usb_regs.c.o)
                                                  D:\projects\arduino\buildtemp\core\core.a(usb_core.c.o)
SetEPRxStatus                                     D:\projects\arduino\buildtemp\core\core.a(usb_regs.c.o)
SetEPRxValid                                      D:\projects\arduino\buildtemp\core\core.a(usb_regs.c.o)
SetEPTxAddr                                       D:\projects\arduino\buildtemp\core\core.a(usb_regs.c.o)
SetEPTxCount                                      D:\projects\arduino\buildtemp\core\core.a(usb_regs.c.o)
                                                  D:\projects\arduino\buildtemp\core\core.a(usb_core.c.o)
SetEPTxStatus                                     D:\projects\arduino\buildtemp\core\core.a(usb_regs.c.o)
                                                  D:\projects\arduino\buildtemp\core\core.a(usb_core.c.o)
SetEPTxValid                                      D:\projects\arduino\buildtemp\core\core.a(usb_regs.c.o)
SetEPType                                         D:\projects\arduino\buildtemp\core\core.a(usb_regs.c.o)
SetEP_KIND                                        D:\projects\arduino\buildtemp\core\core.a(usb_regs.c.o)
SetFlashAddress()                                 D:\projects\arduino\buildtemp\sketch\Stylish.pde.cpp.o
SetISTR                                           D:\projects\arduino\buildtemp\core\core.a(usb_regs.c.o)
SetKeyDownCallback(void (*)(unsigned char))       D:\projects\arduino\buildtemp\sketch\Stylish.pde.cpp.o
SetKeyUpCallback(void (*)(unsigned char))         D:\projects\arduino\buildtemp\sketch\Stylish.pde.cpp.o
SetLocalPatchData(unsigned char, unsigned char)   D:\projects\arduino\buildtemp\sketch\Stylish.pde.cpp.o
SetUIValue(unsigned char)                         D:\projects\arduino\buildtemp\sketch\Stylish.pde.cpp.o
Set_Status_Out                                    D:\projects\arduino\buildtemp\core\core.a(usb_regs.c.o)
Set_UI_State(eUI_States)                          D:\projects\arduino\buildtemp\sketch\Stylish.pde.cpp.o
Set_UI_SubState(eUI_SubStates)                    D:\projects\arduino\buildtemp\sketch\Stylish.pde.cpp.o
Setup0_Process                                    D:\projects\arduino\buildtemp\core\core.a(usb_core.c.o)
                                                  D:\projects\arduino\buildtemp\core\core.a(usb.c.o)
SoundKeyDown(unsigned char)                       D:\projects\arduino\buildtemp\sketch\Stylish.pde.cpp.o
SoundKeyUp()                                      D:\projects\arduino\buildtemp\sketch\Stylish.pde.cpp.o
SoundRetrigger()                                  D:\projects\arduino\buildtemp\sketch\Stylish.pde.cpp.o
Standard_ClearFeature                             D:\projects\arduino\buildtemp\core\core.a(usb_core.c.o)
Standard_GetConfiguration                         D:\projects\arduino\buildtemp\core\core.a(usb_core.c.o)
Standard_GetDescriptorData                        D:\projects\arduino\buildtemp\core\core.a(usb_core.c.o)
                                                  D:\projects\arduino\buildtemp\core\core.a(usb_cdcacm.c.o)
Standard_GetInterface                             D:\projects\arduino\buildtemp\core\core.a(usb_core.c.o)
Standard_GetStatus                                D:\projects\arduino\buildtemp\core\core.a(usb_core.c.o)
Standard_SetConfiguration                         D:\projects\arduino\buildtemp\core\core.a(usb_core.c.o)
Standard_SetDeviceFeature                         D:\projects\arduino\buildtemp\core\core.a(usb_core.c.o)
Standard_SetEndPointFeature                       D:\projects\arduino\buildtemp\core\core.a(usb_core.c.o)
Standard_SetInterface                             D:\projects\arduino\buildtemp\core\core.a(usb_core.c.o)
StatusInfo                                        D:\projects\arduino\buildtemp\core\core.a(usb_core.c.o)
StylusKeyboardSetup()                             D:\projects\arduino\buildtemp\sketch\Stylish.pde.cpp.o
StylusKeyboardUpdate()                            D:\projects\arduino\buildtemp\sketch\Stylish.pde.cpp.o
SubStateKeyDown(unsigned char)                    D:\projects\arduino\buildtemp\sketch\Stylish.pde.cpp.o
SubStateKeyUp(unsigned char)                      D:\projects\arduino\buildtemp\sketch\Stylish.pde.cpp.o
TIMER1                                            D:\projects\arduino\buildtemp\core\core.a(timer.c.o)
TIMER2                                            D:\projects\arduino\buildtemp\core\core.a(timer.c.o)
TIMER3                                            D:\projects\arduino\buildtemp\core\core.a(timer.c.o)
TIMER4                                            D:\projects\arduino\buildtemp\core\core.a(timer.c.o)
Timer1                                            D:\projects\arduino\buildtemp\core\core.a(HardwareTimer.cpp.o)
Timer2                                            D:\projects\arduino\buildtemp\core\core.a(HardwareTimer.cpp.o)
Timer3                                            D:\projects\arduino\buildtemp\core\core.a(HardwareTimer.cpp.o)
Timer4                                            D:\projects\arduino\buildtemp\core\core.a(HardwareTimer.cpp.o)
ToWord                                            D:\projects\arduino\buildtemp\core\core.a(usb_regs.c.o)
ToggleDTOG_RX                                     D:\projects\arduino\buildtemp\core\core.a(usb_regs.c.o)
ToggleDTOG_TX                                     D:\projects\arduino\buildtemp\core\core.a(usb_regs.c.o)
UI_State_Strings                                  D:\projects\arduino\buildtemp\sketch\Stylish.pde.cpp.o
UI_SubState_Strings                               D:\projects\arduino\buildtemp\sketch\Stylish.pde.cpp.o
USART1                                            D:\projects\arduino\buildtemp\core\core.a(usart_f1.c.o)
                                                  D:\projects\arduino\buildtemp\core\board.cpp.o
USART2                                            D:\projects\arduino\buildtemp\core\core.a(usart_f1.c.o)
                                                  D:\projects\arduino\buildtemp\core\board.cpp.o
USART3                                            D:\projects\arduino\buildtemp\core\core.a(usart_f1.c.o)
                                                  D:\projects\arduino\buildtemp\core\board.cpp.o
USBLIB                                            D:\projects\arduino\buildtemp\core\core.a(usb.c.o)
                                                  D:\projects\arduino\buildtemp\core\core.a(usb_serial.cpp.o)
                                                  D:\projects\arduino\buildtemp\core\core.a(usb_cdcacm.c.o)
USBSerial::USBSerial()                            D:\projects\arduino\buildtemp\core\core.a(usb_serial.cpp.o)
USBSerial::USBSerial()                            D:\projects\arduino\buildtemp\core\core.a(usb_serial.cpp.o)
USBSerial::_hasBegun                              D:\projects\arduino\buildtemp\core\core.a(usb_serial.cpp.o)
USBSerial::available()                            D:\projects\arduino\buildtemp\core\core.a(usb_serial.cpp.o)
USBSerial::availableForWrite()                    D:\projects\arduino\buildtemp\core\core.a(usb_serial.cpp.o)
USBSerial::begin()                                D:\projects\arduino\buildtemp\core\core.a(usb_serial.cpp.o)
                                                  D:\projects\arduino\buildtemp\core\wirish\boards_setup.cpp.o
USBSerial::begin(unsigned long)                   D:\projects\arduino\buildtemp\core\core.a(usb_serial.cpp.o)
                                                  D:\projects\arduino\buildtemp\sketch\Stylish.pde.cpp.o
USBSerial::begin(unsigned long, unsigned char)    D:\projects\arduino\buildtemp\core\core.a(usb_serial.cpp.o)
USBSerial::end()                                  D:\projects\arduino\buildtemp\core\core.a(usb_serial.cpp.o)
USBSerial::flush()                                D:\projects\arduino\buildtemp\core\core.a(usb_serial.cpp.o)
USBSerial::getDTR()                               D:\projects\arduino\buildtemp\core\core.a(usb_serial.cpp.o)
USBSerial::getRTS()                               D:\projects\arduino\buildtemp\core\core.a(usb_serial.cpp.o)
USBSerial::operator bool()                        D:\projects\arduino\buildtemp\core\core.a(usb_serial.cpp.o)
USBSerial::peek()                                 D:\projects\arduino\buildtemp\core\core.a(usb_serial.cpp.o)
USBSerial::pending()                              D:\projects\arduino\buildtemp\core\core.a(usb_serial.cpp.o)
USBSerial::read()                                 D:\projects\arduino\buildtemp\core\core.a(usb_serial.cpp.o)
USBSerial::read(unsigned char*, unsigned long)    D:\projects\arduino\buildtemp\core\core.a(usb_serial.cpp.o)
USBSerial::readBytes(char*, unsigned int const&)  D:\projects\arduino\buildtemp\core\core.a(usb_serial.cpp.o)
USBSerial::write(char const*)                     D:\projects\arduino\buildtemp\core\core.a(usb_serial.cpp.o)
USBSerial::write(unsigned char const*, unsigned long) D:\projects\arduino\buildtemp\core\core.a(usb_serial.cpp.o)
USBSerial::write(unsigned char)                   D:\projects\arduino\buildtemp\core\core.a(usb_serial.cpp.o)
USB_Init                                          D:\projects\arduino\buildtemp\core\core.a(usb_init.c.o)
UpdateAllLocalPatchData()                         D:\projects\arduino\buildtemp\sketch\Stylish.pde.cpp.o
UserToPMABufferCopy                               D:\projects\arduino\buildtemp\core\core.a(usb_mem.c.o)
                                                  D:\projects\arduino\buildtemp\core\core.a(usb_core.c.o)
User_Standard_Requests                            D:\projects\arduino\buildtemp\core\core.a(usb_cdcacm.c.o)
                                                  D:\projects\arduino\buildtemp\core\core.a(usb_init.c.o)
                                                  D:\projects\arduino\buildtemp\core\core.a(usb.c.o)
WS2812B::Color(unsigned char, unsigned char, unsigned char) D:\projects\arduino\buildtemp\libraries\WS2812B\WS2812B.cpp.o
WS2812B::Color(unsigned char, unsigned char, unsigned char, unsigned char) D:\projects\arduino\buildtemp\libraries\WS2812B\WS2812B.cpp.o
WS2812B::WS2812B(unsigned short)                  D:\projects\arduino\buildtemp\libraries\WS2812B\WS2812B.cpp.o
WS2812B::WS2812B(unsigned short)                  D:\projects\arduino\buildtemp\libraries\WS2812B\WS2812B.cpp.o
                                                  D:\projects\arduino\buildtemp\sketch\Stylish.pde.cpp.o
WS2812B::begin()                                  D:\projects\arduino\buildtemp\libraries\WS2812B\WS2812B.cpp.o
                                                  D:\projects\arduino\buildtemp\sketch\Stylish.pde.cpp.o
WS2812B::clear()                                  D:\projects\arduino\buildtemp\libraries\WS2812B\WS2812B.cpp.o
WS2812B::getBrightness() const                    D:\projects\arduino\buildtemp\libraries\WS2812B\WS2812B.cpp.o
WS2812B::numPixels() const                        D:\projects\arduino\buildtemp\libraries\WS2812B\WS2812B.cpp.o
                                                  D:\projects\arduino\buildtemp\sketch\Stylish.pde.cpp.o
WS2812B::setBrightness(unsigned char)             D:\projects\arduino\buildtemp\libraries\WS2812B\WS2812B.cpp.o
                                                  D:\projects\arduino\buildtemp\sketch\Stylish.pde.cpp.o
WS2812B::setPixelColor(unsigned short, unsigned char, unsigned char, unsigned char) D:\projects\arduino\buildtemp\libraries\WS2812B\WS2812B.cpp.o
                                                  D:\projects\arduino\buildtemp\sketch\Stylish.pde.cpp.o
WS2812B::setPixelColor(unsigned short, unsigned long) D:\projects\arduino\buildtemp\libraries\WS2812B\WS2812B.cpp.o
WS2812B::show()                                   D:\projects\arduino\buildtemp\libraries\WS2812B\WS2812B.cpp.o
                                                  D:\projects\arduino\buildtemp\sketch\Stylish.pde.cpp.o
WS2812B::updateLength(unsigned short)             D:\projects\arduino\buildtemp\libraries\WS2812B\WS2812B.cpp.o
WS2812B::~WS2812B()                               D:\projects\arduino\buildtemp\libraries\WS2812B\WS2812B.cpp.o
                                                  D:\projects\arduino\buildtemp\sketch\Stylish.pde.cpp.o
WS2812B::~WS2812B()                               D:\projects\arduino\buildtemp\libraries\WS2812B\WS2812B.cpp.o
WritePatchesToFlash()                             D:\projects\arduino\buildtemp\sketch\Stylish.pde.cpp.o
_Jv_RegisterClasses                               c:/users/softegg/appdata/local/arduino15/packages/arduino/tools/arm-none-eabi-gcc/4.8.3-2014q1/bin/../lib/gcc/arm-none-eabi/4.8.3/armv7-m/crtbegin.o
__adddf3                                          c:/users/softegg/appdata/local/arduino15/packages/arduino/tools/arm-none-eabi-gcc/4.8.3-2014q1/bin/../lib/gcc/arm-none-eabi/4.8.3/armv7-m\libgcc.a(_arm_addsubdf3.o)
__addsf3                                          c:/users/softegg/appdata/local/arduino15/packages/arduino/tools/arm-none-eabi-gcc/4.8.3-2014q1/bin/../lib/gcc/arm-none-eabi/4.8.3/armv7-m\libgcc.a(_arm_addsubsf3.o)
__aeabi_atexit                                    c:/users/softegg/appdata/local/arduino15/packages/arduino/tools/arm-none-eabi-gcc/4.8.3-2014q1/bin/../lib/gcc/arm-none-eabi/4.8.3/../../../../arm-none-eabi/lib/armv7-m\libstdc++.a(atexit_arm.o)
                                                  D:\projects\arduino\buildtemp\sketch\Stylish.pde.cpp.o
__aeabi_cdcmpeq                                   c:/users/softegg/appdata/local/arduino15/packages/arduino/tools/arm-none-eabi-gcc/4.8.3-2014q1/bin/../lib/gcc/arm-none-eabi/4.8.3/armv7-m\libgcc.a(_arm_cmpdf2.o)
__aeabi_cdcmple                                   c:/users/softegg/appdata/local/arduino15/packages/arduino/tools/arm-none-eabi-gcc/4.8.3-2014q1/bin/../lib/gcc/arm-none-eabi/4.8.3/armv7-m\libgcc.a(_arm_cmpdf2.o)
__aeabi_cdrcmple                                  c:/users/softegg/appdata/local/arduino15/packages/arduino/tools/arm-none-eabi-gcc/4.8.3-2014q1/bin/../lib/gcc/arm-none-eabi/4.8.3/armv7-m\libgcc.a(_arm_cmpdf2.o)
__aeabi_cfcmpeq                                   c:/users/softegg/appdata/local/arduino15/packages/arduino/tools/arm-none-eabi-gcc/4.8.3-2014q1/bin/../lib/gcc/arm-none-eabi/4.8.3/armv7-m\libgcc.a(_arm_cmpsf2.o)
__aeabi_cfcmple                                   c:/users/softegg/appdata/local/arduino15/packages/arduino/tools/arm-none-eabi-gcc/4.8.3-2014q1/bin/../lib/gcc/arm-none-eabi/4.8.3/armv7-m\libgcc.a(_arm_cmpsf2.o)
__aeabi_cfrcmple                                  c:/users/softegg/appdata/local/arduino15/packages/arduino/tools/arm-none-eabi-gcc/4.8.3-2014q1/bin/../lib/gcc/arm-none-eabi/4.8.3/armv7-m\libgcc.a(_arm_cmpsf2.o)
__aeabi_d2f                                       c:/users/softegg/appdata/local/arduino15/packages/arduino/tools/arm-none-eabi-gcc/4.8.3-2014q1/bin/../lib/gcc/arm-none-eabi/4.8.3/armv7-m\libgcc.a(_arm_truncdfsf2.o)
                                                  D:\projects\arduino\buildtemp\libraries\STM32ADC\STM32ADC.cpp.o
                                                  D:\projects\arduino\buildtemp\libraries\Mozzi-master\mozzi_midi.cpp.o
__aeabi_d2iz                                      c:/users/softegg/appdata/local/arduino15/packages/arduino/tools/arm-none-eabi-gcc/4.8.3-2014q1/bin/../lib/gcc/arm-none-eabi/4.8.3/armv7-m\libgcc.a(_arm_fixdfsi.o)
                                                  D:\projects\arduino\buildtemp\core\core.a(Print.cpp.o)
__aeabi_d2lz                                      c:/users/softegg/appdata/local/arduino15/packages/arduino/tools/arm-none-eabi-gcc/4.8.3-2014q1/bin/../lib/gcc/arm-none-eabi/4.8.3/armv7-m\libgcc.a(_fixdfdi.o)
                                                  D:\projects\arduino\buildtemp\core\core.a(Print.cpp.o)
__aeabi_d2uiz                                     c:/users/softegg/appdata/local/arduino15/packages/arduino/tools/arm-none-eabi-gcc/4.8.3-2014q1/bin/../lib/gcc/arm-none-eabi/4.8.3/armv7-m\libgcc.a(_arm_fixunsdfsi.o)
                                                  c:/users/softegg/appdata/local/arduino15/packages/arduino/tools/arm-none-eabi-gcc/4.8.3-2014q1/bin/../lib/gcc/arm-none-eabi/4.8.3/armv7-m\libgcc.a(_fixunsdfdi.o)
__aeabi_d2ulz                                     c:/users/softegg/appdata/local/arduino15/packages/arduino/tools/arm-none-eabi-gcc/4.8.3-2014q1/bin/../lib/gcc/arm-none-eabi/4.8.3/armv7-m\libgcc.a(_fixunsdfdi.o)
                                                  c:/users/softegg/appdata/local/arduino15/packages/arduino/tools/arm-none-eabi-gcc/4.8.3-2014q1/bin/../lib/gcc/arm-none-eabi/4.8.3/armv7-m\libgcc.a(_fixdfdi.o)
__aeabi_dadd                                      c:/users/softegg/appdata/local/arduino15/packages/arduino/tools/arm-none-eabi-gcc/4.8.3-2014q1/bin/../lib/gcc/arm-none-eabi/4.8.3/armv7-m\libgcc.a(_arm_addsubdf3.o)
                                                  c:/users/softegg/appdata/local/arduino15/packages/arduino/tools/arm-none-eabi-gcc/4.8.3-2014q1/bin/../lib/gcc/arm-none-eabi/4.8.3/../../../../arm-none-eabi/lib/armv7-m\libm.a(lib_a-s_scalbn.o)
                                                  c:/users/softegg/appdata/local/arduino15/packages/arduino/tools/arm-none-eabi-gcc/4.8.3-2014q1/bin/../lib/gcc/arm-none-eabi/4.8.3/../../../../arm-none-eabi/lib/armv7-m\libm.a(lib_a-s_rint.o)
                                                  c:/users/softegg/appdata/local/arduino15/packages/arduino/tools/arm-none-eabi-gcc/4.8.3-2014q1/bin/../lib/gcc/arm-none-eabi/4.8.3/../../../../arm-none-eabi/lib/armv7-m\libm.a(lib_a-e_sqrt.o)
                                                  c:/users/softegg/appdata/local/arduino15/packages/arduino/tools/arm-none-eabi-gcc/4.8.3-2014q1/bin/../lib/gcc/arm-none-eabi/4.8.3/../../../../arm-none-eabi/lib/armv7-m\libm.a(lib_a-e_pow.o)
                                                  D:\projects\arduino\buildtemp\core\core.a(Print.cpp.o)
__aeabi_dcmpeq                                    c:/users/softegg/appdata/local/arduino15/packages/arduino/tools/arm-none-eabi-gcc/4.8.3-2014q1/bin/../lib/gcc/arm-none-eabi/4.8.3/armv7-m\libgcc.a(_arm_cmpdf2.o)
                                                  c:/users/softegg/appdata/local/arduino15/packages/arduino/tools/arm-none-eabi-gcc/4.8.3-2014q1/bin/../lib/gcc/arm-none-eabi/4.8.3/../../../../arm-none-eabi/lib/armv7-m\libm.a(lib_a-w_pow.o)
__aeabi_dcmpge                                    c:/users/softegg/appdata/local/arduino15/packages/arduino/tools/arm-none-eabi-gcc/4.8.3-2014q1/bin/../lib/gcc/arm-none-eabi/4.8.3/armv7-m\libgcc.a(_arm_cmpdf2.o)
                                                  D:\projects\arduino\buildtemp\core\core.a(Print.cpp.o)
__aeabi_dcmpgt                                    c:/users/softegg/appdata/local/arduino15/packages/arduino/tools/arm-none-eabi-gcc/4.8.3-2014q1/bin/../lib/gcc/arm-none-eabi/4.8.3/armv7-m\libgcc.a(_arm_cmpdf2.o)
                                                  c:/users/softegg/appdata/local/arduino15/packages/arduino/tools/arm-none-eabi-gcc/4.8.3-2014q1/bin/../lib/gcc/arm-none-eabi/4.8.3/../../../../arm-none-eabi/lib/armv7-m\libm.a(lib_a-e_pow.o)
                                                  D:\projects\arduino\buildtemp\core\core.a(Print.cpp.o)
__aeabi_dcmple                                    c:/users/softegg/appdata/local/arduino15/packages/arduino/tools/arm-none-eabi-gcc/4.8.3-2014q1/bin/../lib/gcc/arm-none-eabi/4.8.3/armv7-m\libgcc.a(_arm_cmpdf2.o)
                                                  c:/users/softegg/appdata/local/arduino15/packages/arduino/tools/arm-none-eabi-gcc/4.8.3-2014q1/bin/../lib/gcc/arm-none-eabi/4.8.3/../../../../arm-none-eabi/lib/armv7-m\libm.a(lib_a-e_pow.o)
                                                  D:\projects\arduino\buildtemp\core\core.a(Print.cpp.o)
__aeabi_dcmplt                                    c:/users/softegg/appdata/local/arduino15/packages/arduino/tools/arm-none-eabi-gcc/4.8.3-2014q1/bin/../lib/gcc/arm-none-eabi/4.8.3/armv7-m\libgcc.a(_arm_cmpdf2.o)
                                                  c:/users/softegg/appdata/local/arduino15/packages/arduino/tools/arm-none-eabi-gcc/4.8.3-2014q1/bin/../lib/gcc/arm-none-eabi/4.8.3/armv7-m\libgcc.a(_fixdfdi.o)
                                                  c:/users/softegg/appdata/local/arduino15/packages/arduino/tools/arm-none-eabi-gcc/4.8.3-2014q1/bin/../lib/gcc/arm-none-eabi/4.8.3/../../../../arm-none-eabi/lib/armv7-m\libm.a(lib_a-w_pow.o)
                                                  D:\projects\arduino\buildtemp\core\core.a(Print.cpp.o)
__aeabi_ddiv                                      c:/users/softegg/appdata/local/arduino15/packages/arduino/tools/arm-none-eabi-gcc/4.8.3-2014q1/bin/../lib/gcc/arm-none-eabi/4.8.3/armv7-m\libgcc.a(_arm_muldivdf3.o)
                                                  c:/users/softegg/appdata/local/arduino15/packages/arduino/tools/arm-none-eabi-gcc/4.8.3-2014q1/bin/../lib/gcc/arm-none-eabi/4.8.3/../../../../arm-none-eabi/lib/armv7-m\libm.a(lib_a-e_sqrt.o)
                                                  c:/users/softegg/appdata/local/arduino15/packages/arduino/tools/arm-none-eabi-gcc/4.8.3-2014q1/bin/../lib/gcc/arm-none-eabi/4.8.3/../../../../arm-none-eabi/lib/armv7-m\libm.a(lib_a-e_pow.o)
                                                  c:/users/softegg/appdata/local/arduino15/packages/arduino/tools/arm-none-eabi-gcc/4.8.3-2014q1/bin/../lib/gcc/arm-none-eabi/4.8.3/../../../../arm-none-eabi/lib/armv7-m\libm.a(lib_a-w_pow.o)
                                                  D:\projects\arduino\buildtemp\core\core.a(Print.cpp.o)
                                                  D:\projects\arduino\buildtemp\libraries\Mozzi-master\mozzi_midi.cpp.o
__aeabi_dmul                                      c:/users/softegg/appdata/local/arduino15/packages/arduino/tools/arm-none-eabi-gcc/4.8.3-2014q1/bin/../lib/gcc/arm-none-eabi/4.8.3/armv7-m\libgcc.a(_arm_muldivdf3.o)
                                                  c:/users/softegg/appdata/local/arduino15/packages/arduino/tools/arm-none-eabi-gcc/4.8.3-2014q1/bin/../lib/gcc/arm-none-eabi/4.8.3/armv7-m\libgcc.a(_fixunsdfdi.o)
                                                  c:/users/softegg/appdata/local/arduino15/packages/arduino/tools/arm-none-eabi-gcc/4.8.3-2014q1/bin/../lib/gcc/arm-none-eabi/4.8.3/../../../../arm-none-eabi/lib/armv7-m\libm.a(lib_a-s_scalbn.o)
                                                  c:/users/softegg/appdata/local/arduino15/packages/arduino/tools/arm-none-eabi-gcc/4.8.3-2014q1/bin/../lib/gcc/arm-none-eabi/4.8.3/../../../../arm-none-eabi/lib/armv7-m\libm.a(lib_a-e_sqrt.o)
                                                  c:/users/softegg/appdata/local/arduino15/packages/arduino/tools/arm-none-eabi-gcc/4.8.3-2014q1/bin/../lib/gcc/arm-none-eabi/4.8.3/../../../../arm-none-eabi/lib/armv7-m\libm.a(lib_a-e_pow.o)
                                                  c:/users/softegg/appdata/local/arduino15/packages/arduino/tools/arm-none-eabi-gcc/4.8.3-2014q1/bin/../lib/gcc/arm-none-eabi/4.8.3/../../../../arm-none-eabi/lib/armv7-m\libm.a(lib_a-w_pow.o)
                                                  D:\projects\arduino\buildtemp\core\core.a(Print.cpp.o)
                                                  D:\projects\arduino\buildtemp\libraries\STM32ADC\STM32ADC.cpp.o
                                                  D:\projects\arduino\buildtemp\libraries\Mozzi-master\mozzi_midi.cpp.o
__aeabi_drsub                                     c:/users/softegg/appdata/local/arduino15/packages/arduino/tools/arm-none-eabi-gcc/4.8.3-2014q1/bin/../lib/gcc/arm-none-eabi/4.8.3/armv7-m\libgcc.a(_arm_addsubdf3.o)
__aeabi_dsub                                      c:/users/softegg/appdata/local/arduino15/packages/arduino/tools/arm-none-eabi-gcc/4.8.3-2014q1/bin/../lib/gcc/arm-none-eabi/4.8.3/armv7-m\libgcc.a(_arm_addsubdf3.o)
                                                  c:/users/softegg/appdata/local/arduino15/packages/arduino/tools/arm-none-eabi-gcc/4.8.3-2014q1/bin/../lib/gcc/arm-none-eabi/4.8.3/armv7-m\libgcc.a(_fixunsdfdi.o)
                                                  c:/users/softegg/appdata/local/arduino15/packages/arduino/tools/arm-none-eabi-gcc/4.8.3-2014q1/bin/../lib/gcc/arm-none-eabi/4.8.3/../../../../arm-none-eabi/lib/armv7-m\libm.a(lib_a-s_rint.o)
                                                  c:/users/softegg/appdata/local/arduino15/packages/arduino/tools/arm-none-eabi-gcc/4.8.3-2014q1/bin/../lib/gcc/arm-none-eabi/4.8.3/../../../../arm-none-eabi/lib/armv7-m\libm.a(lib_a-e_sqrt.o)
                                                  c:/users/softegg/appdata/local/arduino15/packages/arduino/tools/arm-none-eabi-gcc/4.8.3-2014q1/bin/../lib/gcc/arm-none-eabi/4.8.3/../../../../arm-none-eabi/lib/armv7-m\libm.a(lib_a-e_pow.o)
                                                  D:\projects\arduino\buildtemp\core\core.a(Print.cpp.o)
__aeabi_f2d                                       c:/users/softegg/appdata/local/arduino15/packages/arduino/tools/arm-none-eabi-gcc/4.8.3-2014q1/bin/../lib/gcc/arm-none-eabi/4.8.3/armv7-m\libgcc.a(_arm_addsubdf3.o)
                                                  D:\projects\arduino\buildtemp\libraries\STM32ADC\STM32ADC.cpp.o
                                                  D:\projects\arduino\buildtemp\libraries\Mozzi-master\mozzi_midi.cpp.o
                                                  D:\projects\arduino\buildtemp\sketch\Stylish.pde.cpp.o
__aeabi_f2uiz                                     c:/users/softegg/appdata/local/arduino15/packages/arduino/tools/arm-none-eabi-gcc/4.8.3-2014q1/bin/../lib/gcc/arm-none-eabi/4.8.3/armv7-m\libgcc.a(_arm_fixunssfsi.o)
                                                  D:\projects\arduino\buildtemp\libraries\Mozzi-master\mozzi_utils.cpp.o
                                                  D:\projects\arduino\buildtemp\libraries\WS2812B\WS2812B.cpp.o
                                                  D:\projects\arduino\buildtemp\sketch\Stylish.pde.cpp.o
__aeabi_fadd                                      c:/users/softegg/appdata/local/arduino15/packages/arduino/tools/arm-none-eabi-gcc/4.8.3-2014q1/bin/../lib/gcc/arm-none-eabi/4.8.3/armv7-m\libgcc.a(_arm_addsubsf3.o)
                                                  D:\projects\arduino\buildtemp\libraries\STM32ADC\STM32ADC.cpp.o
                                                  D:\projects\arduino\buildtemp\libraries\WS2812B\WS2812B.cpp.o
                                                  D:\projects\arduino\buildtemp\sketch\Stylish.pde.cpp.o
__aeabi_fcmpeq                                    c:/users/softegg/appdata/local/arduino15/packages/arduino/tools/arm-none-eabi-gcc/4.8.3-2014q1/bin/../lib/gcc/arm-none-eabi/4.8.3/armv7-m\libgcc.a(_arm_cmpsf2.o)
                                                  D:\projects\arduino\buildtemp\libraries\Mozzi-master\mozzi_midi.cpp.o
__aeabi_fcmpge                                    c:/users/softegg/appdata/local/arduino15/packages/arduino/tools/arm-none-eabi-gcc/4.8.3-2014q1/bin/../lib/gcc/arm-none-eabi/4.8.3/armv7-m\libgcc.a(_arm_cmpsf2.o)
__aeabi_fcmpgt                                    c:/users/softegg/appdata/local/arduino15/packages/arduino/tools/arm-none-eabi-gcc/4.8.3-2014q1/bin/../lib/gcc/arm-none-eabi/4.8.3/armv7-m\libgcc.a(_arm_cmpsf2.o)
                                                  D:\projects\arduino\buildtemp\sketch\Stylish.pde.cpp.o
__aeabi_fcmple                                    c:/users/softegg/appdata/local/arduino15/packages/arduino/tools/arm-none-eabi-gcc/4.8.3-2014q1/bin/../lib/gcc/arm-none-eabi/4.8.3/armv7-m\libgcc.a(_arm_cmpsf2.o)
__aeabi_fcmplt                                    c:/users/softegg/appdata/local/arduino15/packages/arduino/tools/arm-none-eabi-gcc/4.8.3-2014q1/bin/../lib/gcc/arm-none-eabi/4.8.3/armv7-m\libgcc.a(_arm_cmpsf2.o)
                                                  D:\projects\arduino\buildtemp\sketch\Stylish.pde.cpp.o
__aeabi_fdiv                                      c:/users/softegg/appdata/local/arduino15/packages/arduino/tools/arm-none-eabi-gcc/4.8.3-2014q1/bin/../lib/gcc/arm-none-eabi/4.8.3/armv7-m\libgcc.a(_arm_muldivsf3.o)
                                                  D:\projects\arduino\buildtemp\libraries\STM32ADC\STM32ADC.cpp.o
                                                  D:\projects\arduino\buildtemp\libraries\Mozzi-master\mozzi_utils.cpp.o
                                                  D:\projects\arduino\buildtemp\sketch\Stylish.pde.cpp.o
__aeabi_fmul                                      c:/users/softegg/appdata/local/arduino15/packages/arduino/tools/arm-none-eabi-gcc/4.8.3-2014q1/bin/../lib/gcc/arm-none-eabi/4.8.3/armv7-m\libgcc.a(_arm_muldivsf3.o)
                                                  D:\projects\arduino\buildtemp\libraries\Mozzi-master\mozzi_utils.cpp.o
                                                  D:\projects\arduino\buildtemp\libraries\WS2812B\WS2812B.cpp.o
                                                  D:\projects\arduino\buildtemp\sketch\Stylish.pde.cpp.o
__aeabi_frsub                                     c:/users/softegg/appdata/local/arduino15/packages/arduino/tools/arm-none-eabi-gcc/4.8.3-2014q1/bin/../lib/gcc/arm-none-eabi/4.8.3/armv7-m\libgcc.a(_arm_addsubsf3.o)
__aeabi_fsub                                      c:/users/softegg/appdata/local/arduino15/packages/arduino/tools/arm-none-eabi-gcc/4.8.3-2014q1/bin/../lib/gcc/arm-none-eabi/4.8.3/armv7-m\libgcc.a(_arm_addsubsf3.o)
                                                  D:\projects\arduino\buildtemp\libraries\STM32ADC\STM32ADC.cpp.o
                                                  D:\projects\arduino\buildtemp\libraries\WS2812B\WS2812B.cpp.o
                                                  D:\projects\arduino\buildtemp\sketch\Stylish.pde.cpp.o
__aeabi_i2d                                       c:/users/softegg/appdata/local/arduino15/packages/arduino/tools/arm-none-eabi-gcc/4.8.3-2014q1/bin/../lib/gcc/arm-none-eabi/4.8.3/armv7-m\libgcc.a(_arm_addsubdf3.o)
                                                  c:/users/softegg/appdata/local/arduino15/packages/arduino/tools/arm-none-eabi-gcc/4.8.3-2014q1/bin/../lib/gcc/arm-none-eabi/4.8.3/../../../../arm-none-eabi/lib/armv7-m\libm.a(lib_a-e_pow.o)
                                                  D:\projects\arduino\buildtemp\core\core.a(Print.cpp.o)
__aeabi_i2f                                       c:/users/softegg/appdata/local/arduino15/packages/arduino/tools/arm-none-eabi-gcc/4.8.3-2014q1/bin/../lib/gcc/arm-none-eabi/4.8.3/armv7-m\libgcc.a(_arm_addsubsf3.o)
                                                  D:\projects\arduino\buildtemp\sketch\Stylish.pde.cpp.o
__aeabi_idiv0                                     c:/users/softegg/appdata/local/arduino15/packages/arduino/tools/arm-none-eabi-gcc/4.8.3-2014q1/bin/../lib/gcc/arm-none-eabi/4.8.3/armv7-m\libgcc.a(_dvmd_tls.o)
__aeabi_l2d                                       c:/users/softegg/appdata/local/arduino15/packages/arduino/tools/arm-none-eabi-gcc/4.8.3-2014q1/bin/../lib/gcc/arm-none-eabi/4.8.3/armv7-m\libgcc.a(_arm_addsubdf3.o)
                                                  D:\projects\arduino\buildtemp\core\core.a(Print.cpp.o)
__aeabi_l2f                                       c:/users/softegg/appdata/local/arduino15/packages/arduino/tools/arm-none-eabi-gcc/4.8.3-2014q1/bin/../lib/gcc/arm-none-eabi/4.8.3/armv7-m\libgcc.a(_arm_addsubsf3.o)
__aeabi_ldiv0                                     c:/users/softegg/appdata/local/arduino15/packages/arduino/tools/arm-none-eabi-gcc/4.8.3-2014q1/bin/../lib/gcc/arm-none-eabi/4.8.3/armv7-m\libgcc.a(_dvmd_tls.o)
                                                  c:/users/softegg/appdata/local/arduino15/packages/arduino/tools/arm-none-eabi-gcc/4.8.3-2014q1/bin/../lib/gcc/arm-none-eabi/4.8.3/armv7-m\libgcc.a(_aeabi_uldivmod.o)
__aeabi_ui2d                                      c:/users/softegg/appdata/local/arduino15/packages/arduino/tools/arm-none-eabi-gcc/4.8.3-2014q1/bin/../lib/gcc/arm-none-eabi/4.8.3/armv7-m\libgcc.a(_arm_addsubdf3.o)
                                                  c:/users/softegg/appdata/local/arduino15/packages/arduino/tools/arm-none-eabi-gcc/4.8.3-2014q1/bin/../lib/gcc/arm-none-eabi/4.8.3/armv7-m\libgcc.a(_fixunsdfdi.o)
__aeabi_ui2f                                      c:/users/softegg/appdata/local/arduino15/packages/arduino/tools/arm-none-eabi-gcc/4.8.3-2014q1/bin/../lib/gcc/arm-none-eabi/4.8.3/armv7-m\libgcc.a(_arm_addsubsf3.o)
                                                  D:\projects\arduino\buildtemp\libraries\STM32ADC\STM32ADC.cpp.o
                                                  D:\projects\arduino\buildtemp\libraries\Mozzi-master\mozzi_utils.cpp.o
                                                  D:\projects\arduino\buildtemp\libraries\WS2812B\WS2812B.cpp.o
                                                  D:\projects\arduino\buildtemp\sketch\Stylish.pde.cpp.o
__aeabi_ul2d                                      c:/users/softegg/appdata/local/arduino15/packages/arduino/tools/arm-none-eabi-gcc/4.8.3-2014q1/bin/../lib/gcc/arm-none-eabi/4.8.3/armv7-m\libgcc.a(_arm_addsubdf3.o)
__aeabi_ul2f                                      c:/users/softegg/appdata/local/arduino15/packages/arduino/tools/arm-none-eabi-gcc/4.8.3-2014q1/bin/../lib/gcc/arm-none-eabi/4.8.3/armv7-m\libgcc.a(_arm_addsubsf3.o)
__aeabi_uldivmod                                  c:/users/softegg/appdata/local/arduino15/packages/arduino/tools/arm-none-eabi-gcc/4.8.3-2014q1/bin/../lib/gcc/arm-none-eabi/4.8.3/armv7-m\libgcc.a(_aeabi_uldivmod.o)
                                                  D:\projects\arduino\buildtemp\core\core.a(Print.cpp.o)
                                                  D:\projects\arduino\buildtemp\sketch\Stylish.pde.cpp.o
__assert_func                                     D:\projects\arduino\buildtemp\core\core.a(util.c.o)
__bss_end__                                       D:\projects\arduino\buildtemp\core\wirish\start_c.c.o
                                                  c:/users/softegg/appdata/local/arduino15/packages/arduino/tools/arm-none-eabi-gcc/4.8.3-2014q1/bin/../lib/gcc/arm-none-eabi/4.8.3/../../../../arm-none-eabi/lib/armv7-m/crt0.o
__bss_start__                                     D:\projects\arduino\buildtemp\core\wirish\start_c.c.o
                                                  c:/users/softegg/appdata/local/arduino15/packages/arduino/tools/arm-none-eabi-gcc/4.8.3-2014q1/bin/../lib/gcc/arm-none-eabi/4.8.3/../../../../arm-none-eabi/lib/armv7-m/crt0.o
__call_exitprocs                                  c:/users/softegg/appdata/local/arduino15/packages/arduino/tools/arm-none-eabi-gcc/4.8.3-2014q1/bin/../lib/gcc/arm-none-eabi/4.8.3/../../../../arm-none-eabi/lib/armv7-m\libc.a(lib_a-__call_atexit.o)
                                                  c:/users/softegg/appdata/local/arduino15/packages/arduino/tools/arm-none-eabi-gcc/4.8.3-2014q1/bin/../lib/gcc/arm-none-eabi/4.8.3/../../../../arm-none-eabi/lib/armv7-m\libc.a(lib_a-exit.o)
__cmpdf2                                          c:/users/softegg/appdata/local/arduino15/packages/arduino/tools/arm-none-eabi-gcc/4.8.3-2014q1/bin/../lib/gcc/arm-none-eabi/4.8.3/armv7-m\libgcc.a(_arm_cmpdf2.o)
__cmpsf2                                          c:/users/softegg/appdata/local/arduino15/packages/arduino/tools/arm-none-eabi-gcc/4.8.3-2014q1/bin/../lib/gcc/arm-none-eabi/4.8.3/armv7-m\libgcc.a(_arm_cmpsf2.o)
__cxa_atexit                                      c:/users/softegg/appdata/local/arduino15/packages/arduino/tools/arm-none-eabi-gcc/4.8.3-2014q1/bin/../lib/gcc/arm-none-eabi/4.8.3/../../../../arm-none-eabi/lib/armv7-m\libc.a(lib_a-cxa_atexit.o)
                                                  c:/users/softegg/appdata/local/arduino15/packages/arduino/tools/arm-none-eabi-gcc/4.8.3-2014q1/bin/../lib/gcc/arm-none-eabi/4.8.3/../../../../arm-none-eabi/lib/armv7-m\libstdc++.a(atexit_arm.o)
__cxa_pure_virtual                                D:\projects\arduino\buildtemp\core\core.a(cxxabi-compat.cpp.o)
                                                  D:\projects\arduino\buildtemp\core\core.a(usb_serial.cpp.o)
                                                  D:\projects\arduino\buildtemp\core\core.a(Print.cpp.o)
                                                  D:\projects\arduino\buildtemp\core\core.a(HardwareSerial.cpp.o)
__data_end__                                      D:\projects\arduino\buildtemp\core\wirish\start_c.c.o
__data_start__                                    D:\projects\arduino\buildtemp\core\wirish\start_c.c.o
__default_handler                                 D:\projects\arduino\buildtemp\core\core.a(isrs.S.o)
__deregister_frame_info                           c:/users/softegg/appdata/local/arduino15/packages/arduino/tools/arm-none-eabi-gcc/4.8.3-2014q1/bin/../lib/gcc/arm-none-eabi/4.8.3/armv7-m/crtbegin.o
__divdf3                                          c:/users/softegg/appdata/local/arduino15/packages/arduino/tools/arm-none-eabi-gcc/4.8.3-2014q1/bin/../lib/gcc/arm-none-eabi/4.8.3/armv7-m\libgcc.a(_arm_muldivdf3.o)
__divdi3                                          c:/users/softegg/appdata/local/arduino15/packages/arduino/tools/arm-none-eabi-gcc/4.8.3-2014q1/bin/../lib/gcc/arm-none-eabi/4.8.3/armv7-m\libgcc.a(_divdi3.o)
                                                  c:/users/softegg/appdata/local/arduino15/packages/arduino/tools/arm-none-eabi-gcc/4.8.3-2014q1/bin/../lib/gcc/arm-none-eabi/4.8.3/armv7-m\libgcc.a(bpabi.o)
__divsf3                                          c:/users/softegg/appdata/local/arduino15/packages/arduino/tools/arm-none-eabi-gcc/4.8.3-2014q1/bin/../lib/gcc/arm-none-eabi/4.8.3/armv7-m\libgcc.a(_arm_muldivsf3.o)
__dso_handle                                      c:/users/softegg/appdata/local/arduino15/packages/arduino/tools/arm-none-eabi-gcc/4.8.3-2014q1/bin/../lib/gcc/arm-none-eabi/4.8.3/armv7-m/crtbegin.o
                                                  D:\projects\arduino\buildtemp\sketch\Stylish.pde.cpp.o
__eqdf2                                           c:/users/softegg/appdata/local/arduino15/packages/arduino/tools/arm-none-eabi-gcc/4.8.3-2014q1/bin/../lib/gcc/arm-none-eabi/4.8.3/armv7-m\libgcc.a(_arm_cmpdf2.o)
__eqsf2                                           c:/users/softegg/appdata/local/arduino15/packages/arduino/tools/arm-none-eabi-gcc/4.8.3-2014q1/bin/../lib/gcc/arm-none-eabi/4.8.3/armv7-m\libgcc.a(_arm_cmpsf2.o)
__errno                                           c:/users/softegg/appdata/local/arduino15/packages/arduino/tools/arm-none-eabi-gcc/4.8.3-2014q1/bin/../lib/gcc/arm-none-eabi/4.8.3/../../../../arm-none-eabi/lib/armv7-m\libc.a(lib_a-errno.o)
                                                  c:/users/softegg/appdata/local/arduino15/packages/arduino/tools/arm-none-eabi-gcc/4.8.3-2014q1/bin/../lib/gcc/arm-none-eabi/4.8.3/../../../../arm-none-eabi/lib/armv7-m\libm.a(lib_a-w_pow.o)
                                                  D:\projects\arduino\buildtemp\core\wirish\syscalls.c.o
__error                                           D:\projects\arduino\buildtemp\core\core.a(util.c.o)
                                                  D:\projects\arduino\buildtemp\core\core.a(exc.S.o)
__exc_busfault                                    D:\projects\arduino\buildtemp\core\core.a(exc.S.o)
                                                  D:\projects\arduino\buildtemp\core\core.a(vector_table.S.o)
__exc_debug_monitor                               D:\projects\arduino\buildtemp\core\core.a(isrs.S.o)
                                                  D:\projects\arduino\buildtemp\core\core.a(vector_table.S.o)
__exc_hardfault                                   D:\projects\arduino\buildtemp\core\core.a(exc.S.o)
                                                  D:\projects\arduino\buildtemp\core\core.a(vector_table.S.o)
__exc_memmanage                                   D:\projects\arduino\buildtemp\core\core.a(exc.S.o)
                                                  D:\projects\arduino\buildtemp\core\core.a(vector_table.S.o)
__exc_nmi                                         D:\projects\arduino\buildtemp\core\core.a(exc.S.o)
                                                  D:\projects\arduino\buildtemp\core\core.a(vector_table.S.o)
__exc_pendsv                                      D:\projects\arduino\buildtemp\core\core.a(isrs.S.o)
                                                  D:\projects\arduino\buildtemp\core\core.a(vector_table.S.o)
__exc_reset                                       D:\projects\arduino\buildtemp\core\core.a(vector_table.S.o)
__exc_svc                                         D:\projects\arduino\buildtemp\core\core.a(isrs.S.o)
                                                  D:\projects\arduino\buildtemp\core\core.a(vector_table.S.o)
__exc_systick                                     D:\projects\arduino\buildtemp\core\core.a(systick.c.o)
                                                  D:\projects\arduino\buildtemp\core\core.a(vector_table.S.o)
__exc_usagefault                                  D:\projects\arduino\buildtemp\core\core.a(exc.S.o)
                                                  D:\projects\arduino\buildtemp\core\core.a(vector_table.S.o)
__extendsfdf2                                     c:/users/softegg/appdata/local/arduino15/packages/arduino/tools/arm-none-eabi-gcc/4.8.3-2014q1/bin/../lib/gcc/arm-none-eabi/4.8.3/armv7-m\libgcc.a(_arm_addsubdf3.o)
__fdlib_version                                   c:/users/softegg/appdata/local/arduino15/packages/arduino/tools/arm-none-eabi-gcc/4.8.3-2014q1/bin/../lib/gcc/arm-none-eabi/4.8.3/../../../../arm-none-eabi/lib/armv7-m\libm.a(lib_a-s_lib_ver.o)
                                                  c:/users/softegg/appdata/local/arduino15/packages/arduino/tools/arm-none-eabi-gcc/4.8.3-2014q1/bin/../lib/gcc/arm-none-eabi/4.8.3/../../../../arm-none-eabi/lib/armv7-m\libm.a(lib_a-w_pow.o)
__fini_array_end                                  c:/users/softegg/appdata/local/arduino15/packages/arduino/tools/arm-none-eabi-gcc/4.8.3-2014q1/bin/../lib/gcc/arm-none-eabi/4.8.3/../../../../arm-none-eabi/lib/armv7-m\libc.a(lib_a-fini.o)
__fini_array_start                                c:/users/softegg/appdata/local/arduino15/packages/arduino/tools/arm-none-eabi-gcc/4.8.3-2014q1/bin/../lib/gcc/arm-none-eabi/4.8.3/../../../../arm-none-eabi/lib/armv7-m\libc.a(lib_a-fini.o)
__fixdfdi                                         c:/users/softegg/appdata/local/arduino15/packages/arduino/tools/arm-none-eabi-gcc/4.8.3-2014q1/bin/../lib/gcc/arm-none-eabi/4.8.3/armv7-m\libgcc.a(_fixdfdi.o)
__fixdfsi                                         c:/users/softegg/appdata/local/arduino15/packages/arduino/tools/arm-none-eabi-gcc/4.8.3-2014q1/bin/../lib/gcc/arm-none-eabi/4.8.3/armv7-m\libgcc.a(_arm_fixdfsi.o)
__fixunsdfdi                                      c:/users/softegg/appdata/local/arduino15/packages/arduino/tools/arm-none-eabi-gcc/4.8.3-2014q1/bin/../lib/gcc/arm-none-eabi/4.8.3/armv7-m\libgcc.a(_fixunsdfdi.o)
__fixunsdfsi                                      c:/users/softegg/appdata/local/arduino15/packages/arduino/tools/arm-none-eabi-gcc/4.8.3-2014q1/bin/../lib/gcc/arm-none-eabi/4.8.3/armv7-m\libgcc.a(_arm_fixunsdfsi.o)
__fixunssfsi                                      c:/users/softegg/appdata/local/arduino15/packages/arduino/tools/arm-none-eabi-gcc/4.8.3-2014q1/bin/../lib/gcc/arm-none-eabi/4.8.3/armv7-m\libgcc.a(_arm_fixunssfsi.o)
__floatdidf                                       c:/users/softegg/appdata/local/arduino15/packages/arduino/tools/arm-none-eabi-gcc/4.8.3-2014q1/bin/../lib/gcc/arm-none-eabi/4.8.3/armv7-m\libgcc.a(_arm_addsubdf3.o)
__floatdisf                                       c:/users/softegg/appdata/local/arduino15/packages/arduino/tools/arm-none-eabi-gcc/4.8.3-2014q1/bin/../lib/gcc/arm-none-eabi/4.8.3/armv7-m\libgcc.a(_arm_addsubsf3.o)
__floatsidf                                       c:/users/softegg/appdata/local/arduino15/packages/arduino/tools/arm-none-eabi-gcc/4.8.3-2014q1/bin/../lib/gcc/arm-none-eabi/4.8.3/armv7-m\libgcc.a(_arm_addsubdf3.o)
__floatsisf                                       c:/users/softegg/appdata/local/arduino15/packages/arduino/tools/arm-none-eabi-gcc/4.8.3-2014q1/bin/../lib/gcc/arm-none-eabi/4.8.3/armv7-m\libgcc.a(_arm_addsubsf3.o)
__floatundidf                                     c:/users/softegg/appdata/local/arduino15/packages/arduino/tools/arm-none-eabi-gcc/4.8.3-2014q1/bin/../lib/gcc/arm-none-eabi/4.8.3/armv7-m\libgcc.a(_arm_addsubdf3.o)
__floatundisf                                     c:/users/softegg/appdata/local/arduino15/packages/arduino/tools/arm-none-eabi-gcc/4.8.3-2014q1/bin/../lib/gcc/arm-none-eabi/4.8.3/armv7-m\libgcc.a(_arm_addsubsf3.o)
__floatunsidf                                     c:/users/softegg/appdata/local/arduino15/packages/arduino/tools/arm-none-eabi-gcc/4.8.3-2014q1/bin/../lib/gcc/arm-none-eabi/4.8.3/armv7-m\libgcc.a(_arm_addsubdf3.o)
__floatunsisf                                     c:/users/softegg/appdata/local/arduino15/packages/arduino/tools/arm-none-eabi-gcc/4.8.3-2014q1/bin/../lib/gcc/arm-none-eabi/4.8.3/armv7-m\libgcc.a(_arm_addsubsf3.o)
__fpclassifyd                                     c:/users/softegg/appdata/local/arduino15/packages/arduino/tools/arm-none-eabi-gcc/4.8.3-2014q1/bin/../lib/gcc/arm-none-eabi/4.8.3/../../../../arm-none-eabi/lib/armv7-m\libm.a(lib_a-s_fpclassify.o)
                                                  c:/users/softegg/appdata/local/arduino15/packages/arduino/tools/arm-none-eabi-gcc/4.8.3-2014q1/bin/../lib/gcc/arm-none-eabi/4.8.3/../../../../arm-none-eabi/lib/armv7-m\libm.a(lib_a-w_pow.o)
__gedf2                                           c:/users/softegg/appdata/local/arduino15/packages/arduino/tools/arm-none-eabi-gcc/4.8.3-2014q1/bin/../lib/gcc/arm-none-eabi/4.8.3/armv7-m\libgcc.a(_arm_cmpdf2.o)
__gesf2                                           c:/users/softegg/appdata/local/arduino15/packages/arduino/tools/arm-none-eabi-gcc/4.8.3-2014q1/bin/../lib/gcc/arm-none-eabi/4.8.3/armv7-m\libgcc.a(_arm_cmpsf2.o)
__gnu_ldivmod_helper                              c:/users/softegg/appdata/local/arduino15/packages/arduino/tools/arm-none-eabi-gcc/4.8.3-2014q1/bin/../lib/gcc/arm-none-eabi/4.8.3/armv7-m\libgcc.a(bpabi.o)
__gnu_uldivmod_helper                             c:/users/softegg/appdata/local/arduino15/packages/arduino/tools/arm-none-eabi-gcc/4.8.3-2014q1/bin/../lib/gcc/arm-none-eabi/4.8.3/armv7-m\libgcc.a(bpabi.o)
                                                  c:/users/softegg/appdata/local/arduino15/packages/arduino/tools/arm-none-eabi-gcc/4.8.3-2014q1/bin/../lib/gcc/arm-none-eabi/4.8.3/armv7-m\libgcc.a(_aeabi_uldivmod.o)
__gtdf2                                           c:/users/softegg/appdata/local/arduino15/packages/arduino/tools/arm-none-eabi-gcc/4.8.3-2014q1/bin/../lib/gcc/arm-none-eabi/4.8.3/armv7-m\libgcc.a(_arm_cmpdf2.o)
__gtsf2                                           c:/users/softegg/appdata/local/arduino15/packages/arduino/tools/arm-none-eabi-gcc/4.8.3-2014q1/bin/../lib/gcc/arm-none-eabi/4.8.3/armv7-m\libgcc.a(_arm_cmpsf2.o)
__ieee754_pow                                     c:/users/softegg/appdata/local/arduino15/packages/arduino/tools/arm-none-eabi-gcc/4.8.3-2014q1/bin/../lib/gcc/arm-none-eabi/4.8.3/../../../../arm-none-eabi/lib/armv7-m\libm.a(lib_a-e_pow.o)
                                                  c:/users/softegg/appdata/local/arduino15/packages/arduino/tools/arm-none-eabi-gcc/4.8.3-2014q1/bin/../lib/gcc/arm-none-eabi/4.8.3/../../../../arm-none-eabi/lib/armv7-m\libm.a(lib_a-w_pow.o)
__ieee754_sqrt                                    c:/users/softegg/appdata/local/arduino15/packages/arduino/tools/arm-none-eabi-gcc/4.8.3-2014q1/bin/../lib/gcc/arm-none-eabi/4.8.3/../../../../arm-none-eabi/lib/armv7-m\libm.a(lib_a-e_sqrt.o)
                                                  c:/users/softegg/appdata/local/arduino15/packages/arduino/tools/arm-none-eabi-gcc/4.8.3-2014q1/bin/../lib/gcc/arm-none-eabi/4.8.3/../../../../arm-none-eabi/lib/armv7-m\libm.a(lib_a-e_pow.o)
__init_array_end                                  c:/users/softegg/appdata/local/arduino15/packages/arduino/tools/arm-none-eabi-gcc/4.8.3-2014q1/bin/../lib/gcc/arm-none-eabi/4.8.3/../../../../arm-none-eabi/lib/armv7-m\libc.a(lib_a-init.o)
__init_array_start                                c:/users/softegg/appdata/local/arduino15/packages/arduino/tools/arm-none-eabi-gcc/4.8.3-2014q1/bin/../lib/gcc/arm-none-eabi/4.8.3/../../../../arm-none-eabi/lib/armv7-m\libc.a(lib_a-init.o)
__irq_adc                                         D:\projects\arduino\buildtemp\core\core.a(adc_f1.c.o)
                                                  D:\projects\arduino\buildtemp\core\core.a(vector_table.S.o)
__irq_can_rx1                                     D:\projects\arduino\buildtemp\core\core.a(isrs.S.o)
                                                  D:\projects\arduino\buildtemp\core\core.a(vector_table.S.o)
__irq_can_sce                                     D:\projects\arduino\buildtemp\core\core.a(isrs.S.o)
                                                  D:\projects\arduino\buildtemp\core\core.a(vector_table.S.o)
__irq_dma1_channel1                               D:\projects\arduino\buildtemp\core\core.a(dma_f1.c.o)
                                                  D:\projects\arduino\buildtemp\core\core.a(vector_table.S.o)
__irq_dma1_channel2                               D:\projects\arduino\buildtemp\core\core.a(dma_f1.c.o)
                                                  D:\projects\arduino\buildtemp\core\core.a(vector_table.S.o)
__irq_dma1_channel3                               D:\projects\arduino\buildtemp\core\core.a(dma_f1.c.o)
                                                  D:\projects\arduino\buildtemp\core\core.a(vector_table.S.o)
__irq_dma1_channel4                               D:\projects\arduino\buildtemp\core\core.a(dma_f1.c.o)
                                                  D:\projects\arduino\buildtemp\core\core.a(vector_table.S.o)
__irq_dma1_channel5                               D:\projects\arduino\buildtemp\core\core.a(dma_f1.c.o)
                                                  D:\projects\arduino\buildtemp\core\core.a(vector_table.S.o)
__irq_dma1_channel6                               D:\projects\arduino\buildtemp\core\core.a(dma_f1.c.o)
                                                  D:\projects\arduino\buildtemp\core\core.a(vector_table.S.o)
__irq_dma1_channel7                               D:\projects\arduino\buildtemp\core\core.a(dma_f1.c.o)
                                                  D:\projects\arduino\buildtemp\core\core.a(vector_table.S.o)
__irq_exti0                                       D:\projects\arduino\buildtemp\core\core.a(exti.c.o)
                                                  D:\projects\arduino\buildtemp\core\core.a(vector_table.S.o)
__irq_exti1                                       D:\projects\arduino\buildtemp\core\core.a(exti.c.o)
                                                  D:\projects\arduino\buildtemp\core\core.a(vector_table.S.o)
__irq_exti15_10                                   D:\projects\arduino\buildtemp\core\core.a(exti.c.o)
                                                  D:\projects\arduino\buildtemp\core\core.a(vector_table.S.o)
__irq_exti2                                       D:\projects\arduino\buildtemp\core\core.a(exti.c.o)
                                                  D:\projects\arduino\buildtemp\core\core.a(vector_table.S.o)
__irq_exti3                                       D:\projects\arduino\buildtemp\core\core.a(exti.c.o)
                                                  D:\projects\arduino\buildtemp\core\core.a(vector_table.S.o)
__irq_exti4                                       D:\projects\arduino\buildtemp\core\core.a(exti.c.o)
                                                  D:\projects\arduino\buildtemp\core\core.a(vector_table.S.o)
__irq_exti9_5                                     D:\projects\arduino\buildtemp\core\core.a(exti.c.o)
                                                  D:\projects\arduino\buildtemp\core\core.a(vector_table.S.o)
__irq_flash                                       D:\projects\arduino\buildtemp\core\core.a(isrs.S.o)
                                                  D:\projects\arduino\buildtemp\core\core.a(vector_table.S.o)
__irq_i2c1_er                                     D:\projects\arduino\buildtemp\core\core.a(i2c_f1.c.o)
                                                  D:\projects\arduino\buildtemp\core\core.a(vector_table.S.o)
__irq_i2c1_ev                                     D:\projects\arduino\buildtemp\core\core.a(i2c_f1.c.o)
                                                  D:\projects\arduino\buildtemp\core\core.a(vector_table.S.o)
__irq_i2c2_er                                     D:\projects\arduino\buildtemp\core\core.a(i2c_f1.c.o)
                                                  D:\projects\arduino\buildtemp\core\core.a(vector_table.S.o)
__irq_i2c2_ev                                     D:\projects\arduino\buildtemp\core\core.a(i2c_f1.c.o)
                                                  D:\projects\arduino\buildtemp\core\core.a(vector_table.S.o)
__irq_pvd                                         D:\projects\arduino\buildtemp\core\core.a(isrs.S.o)
                                                  D:\projects\arduino\buildtemp\core\core.a(vector_table.S.o)
__irq_rcc                                         D:\projects\arduino\buildtemp\core\core.a(isrs.S.o)
                                                  D:\projects\arduino\buildtemp\core\core.a(vector_table.S.o)
__irq_rtc                                         D:\projects\arduino\buildtemp\core\core.a(isrs.S.o)
                                                  D:\projects\arduino\buildtemp\core\core.a(vector_table.S.o)
__irq_rtcalarm                                    D:\projects\arduino\buildtemp\core\core.a(isrs.S.o)
                                                  D:\projects\arduino\buildtemp\core\core.a(vector_table.S.o)
__irq_spi1                                        D:\projects\arduino\buildtemp\core\core.a(isrs.S.o)
                                                  D:\projects\arduino\buildtemp\core\core.a(vector_table.S.o)
__irq_spi2                                        D:\projects\arduino\buildtemp\core\core.a(isrs.S.o)
                                                  D:\projects\arduino\buildtemp\core\core.a(vector_table.S.o)
__irq_tamper                                      D:\projects\arduino\buildtemp\core\core.a(isrs.S.o)
                                                  D:\projects\arduino\buildtemp\core\core.a(vector_table.S.o)
__irq_tim1_brk                                    D:\projects\arduino\buildtemp\core\core.a(timer.c.o)
                                                  D:\projects\arduino\buildtemp\core\core.a(vector_table.S.o)
__irq_tim1_cc                                     D:\projects\arduino\buildtemp\core\core.a(timer.c.o)
                                                  D:\projects\arduino\buildtemp\core\core.a(vector_table.S.o)
__irq_tim1_trg_com                                D:\projects\arduino\buildtemp\core\core.a(timer.c.o)
                                                  D:\projects\arduino\buildtemp\core\core.a(vector_table.S.o)
__irq_tim1_up                                     D:\projects\arduino\buildtemp\core\core.a(timer.c.o)
                                                  D:\projects\arduino\buildtemp\core\core.a(vector_table.S.o)
__irq_tim2                                        D:\projects\arduino\buildtemp\core\core.a(timer.c.o)
                                                  D:\projects\arduino\buildtemp\core\core.a(vector_table.S.o)
__irq_tim3                                        D:\projects\arduino\buildtemp\core\core.a(timer.c.o)
                                                  D:\projects\arduino\buildtemp\core\core.a(vector_table.S.o)
__irq_tim4                                        D:\projects\arduino\buildtemp\core\core.a(timer.c.o)
                                                  D:\projects\arduino\buildtemp\core\core.a(vector_table.S.o)
__irq_usart1                                      D:\projects\arduino\buildtemp\core\core.a(usart_f1.c.o)
                                                  D:\projects\arduino\buildtemp\core\core.a(vector_table.S.o)
__irq_usart2                                      D:\projects\arduino\buildtemp\core\core.a(usart_f1.c.o)
                                                  D:\projects\arduino\buildtemp\core\core.a(vector_table.S.o)
__irq_usart3                                      D:\projects\arduino\buildtemp\core\core.a(usart_f1.c.o)
                                                  D:\projects\arduino\buildtemp\core\core.a(vector_table.S.o)
__irq_usb_hp_can_tx                               D:\projects\arduino\buildtemp\core\core.a(isrs.S.o)
                                                  D:\projects\arduino\buildtemp\core\core.a(vector_table.S.o)
__irq_usb_lp_can_rx0                              D:\projects\arduino\buildtemp\core\core.a(usb.c.o)
                                                  D:\projects\arduino\buildtemp\core\core.a(vector_table.S.o)
__irq_usbwakeup                                   D:\projects\arduino\buildtemp\core\core.a(isrs.S.o)
                                                  D:\projects\arduino\buildtemp\core\core.a(vector_table.S.o)
__irq_wwdg                                        D:\projects\arduino\buildtemp\core\core.a(isrs.S.o)
                                                  D:\projects\arduino\buildtemp\core\core.a(vector_table.S.o)
__ledf2                                           c:/users/softegg/appdata/local/arduino15/packages/arduino/tools/arm-none-eabi-gcc/4.8.3-2014q1/bin/../lib/gcc/arm-none-eabi/4.8.3/armv7-m\libgcc.a(_arm_cmpdf2.o)
__lesf2                                           c:/users/softegg/appdata/local/arduino15/packages/arduino/tools/arm-none-eabi-gcc/4.8.3-2014q1/bin/../lib/gcc/arm-none-eabi/4.8.3/armv7-m\libgcc.a(_arm_cmpsf2.o)
__libc_fini                                       c:/users/softegg/appdata/local/arduino15/packages/arduino/tools/arm-none-eabi-gcc/4.8.3-2014q1/bin/../lib/gcc/arm-none-eabi/4.8.3/../../../../arm-none-eabi/lib/armv7-m\libc.a(lib_a-__call_atexit.o)
__libc_fini_array                                 c:/users/softegg/appdata/local/arduino15/packages/arduino/tools/arm-none-eabi-gcc/4.8.3-2014q1/bin/../lib/gcc/arm-none-eabi/4.8.3/../../../../arm-none-eabi/lib/armv7-m\libc.a(lib_a-fini.o)
                                                  c:/users/softegg/appdata/local/arduino15/packages/arduino/tools/arm-none-eabi-gcc/4.8.3-2014q1/bin/../lib/gcc/arm-none-eabi/4.8.3/../../../../arm-none-eabi/lib/armv7-m\libc.a(lib_a-__call_atexit.o)
                                                  c:/users/softegg/appdata/local/arduino15/packages/arduino/tools/arm-none-eabi-gcc/4.8.3-2014q1/bin/../lib/gcc/arm-none-eabi/4.8.3/../../../../arm-none-eabi/lib/armv7-m/crt0.o
__libc_init_array                                 c:/users/softegg/appdata/local/arduino15/packages/arduino/tools/arm-none-eabi-gcc/4.8.3-2014q1/bin/../lib/gcc/arm-none-eabi/4.8.3/../../../../arm-none-eabi/lib/armv7-m\libc.a(lib_a-init.o)
                                                  D:\projects\arduino\buildtemp\core\wirish\start_c.c.o
                                                  c:/users/softegg/appdata/local/arduino15/packages/arduino/tools/arm-none-eabi-gcc/4.8.3-2014q1/bin/../lib/gcc/arm-none-eabi/4.8.3/../../../../arm-none-eabi/lib/armv7-m/crt0.o
__lm_enable_error_usart                           D:\projects\arduino\buildtemp\core\core.a(util.c.o)
__lm_error                                        D:\projects\arduino\buildtemp\core\core.a(util.c.o)
__ltdf2                                           c:/users/softegg/appdata/local/arduino15/packages/arduino/tools/arm-none-eabi-gcc/4.8.3-2014q1/bin/../lib/gcc/arm-none-eabi/4.8.3/armv7-m\libgcc.a(_arm_cmpdf2.o)
__ltsf2                                           c:/users/softegg/appdata/local/arduino15/packages/arduino/tools/arm-none-eabi-gcc/4.8.3-2014q1/bin/../lib/gcc/arm-none-eabi/4.8.3/armv7-m\libgcc.a(_arm_cmpsf2.o)
__malloc_av_                                      c:/users/softegg/appdata/local/arduino15/packages/arduino/tools/arm-none-eabi-gcc/4.8.3-2014q1/bin/../lib/gcc/arm-none-eabi/4.8.3/../../../../arm-none-eabi/lib/armv7-m\libc.a(lib_a-mallocr.o)
                                                  c:/users/softegg/appdata/local/arduino15/packages/arduino/tools/arm-none-eabi-gcc/4.8.3-2014q1/bin/../lib/gcc/arm-none-eabi/4.8.3/../../../../arm-none-eabi/lib/armv7-m\libc.a(lib_a-freer.o)
__malloc_current_mallinfo                         c:/users/softegg/appdata/local/arduino15/packages/arduino/tools/arm-none-eabi-gcc/4.8.3-2014q1/bin/../lib/gcc/arm-none-eabi/4.8.3/../../../../arm-none-eabi/lib/armv7-m\libc.a(lib_a-mallocr.o)
                                                  c:/users/softegg/appdata/local/arduino15/packages/arduino/tools/arm-none-eabi-gcc/4.8.3-2014q1/bin/../lib/gcc/arm-none-eabi/4.8.3/../../../../arm-none-eabi/lib/armv7-m\libc.a(lib_a-freer.o)
__malloc_lock                                     c:/users/softegg/appdata/local/arduino15/packages/arduino/tools/arm-none-eabi-gcc/4.8.3-2014q1/bin/../lib/gcc/arm-none-eabi/4.8.3/../../../../arm-none-eabi/lib/armv7-m\libc.a(lib_a-mlock.o)
                                                  c:/users/softegg/appdata/local/arduino15/packages/arduino/tools/arm-none-eabi-gcc/4.8.3-2014q1/bin/../lib/gcc/arm-none-eabi/4.8.3/../../../../arm-none-eabi/lib/armv7-m\libc.a(lib_a-freer.o)
                                                  c:/users/softegg/appdata/local/arduino15/packages/arduino/tools/arm-none-eabi-gcc/4.8.3-2014q1/bin/../lib/gcc/arm-none-eabi/4.8.3/../../../../arm-none-eabi/lib/armv7-m\libc.a(lib_a-mallocr.o)
__malloc_max_sbrked_mem                           c:/users/softegg/appdata/local/arduino15/packages/arduino/tools/arm-none-eabi-gcc/4.8.3-2014q1/bin/../lib/gcc/arm-none-eabi/4.8.3/../../../../arm-none-eabi/lib/armv7-m\libc.a(lib_a-mallocr.o)
__malloc_max_total_mem                            c:/users/softegg/appdata/local/arduino15/packages/arduino/tools/arm-none-eabi-gcc/4.8.3-2014q1/bin/../lib/gcc/arm-none-eabi/4.8.3/../../../../arm-none-eabi/lib/armv7-m\libc.a(lib_a-mallocr.o)
__malloc_sbrk_base                                c:/users/softegg/appdata/local/arduino15/packages/arduino/tools/arm-none-eabi-gcc/4.8.3-2014q1/bin/../lib/gcc/arm-none-eabi/4.8.3/../../../../arm-none-eabi/lib/armv7-m\libc.a(lib_a-mallocr.o)
                                                  c:/users/softegg/appdata/local/arduino15/packages/arduino/tools/arm-none-eabi-gcc/4.8.3-2014q1/bin/../lib/gcc/arm-none-eabi/4.8.3/../../../../arm-none-eabi/lib/armv7-m\libc.a(lib_a-freer.o)
__malloc_top_pad                                  c:/users/softegg/appdata/local/arduino15/packages/arduino/tools/arm-none-eabi-gcc/4.8.3-2014q1/bin/../lib/gcc/arm-none-eabi/4.8.3/../../../../arm-none-eabi/lib/armv7-m\libc.a(lib_a-mallocr.o)
                                                  c:/users/softegg/appdata/local/arduino15/packages/arduino/tools/arm-none-eabi-gcc/4.8.3-2014q1/bin/../lib/gcc/arm-none-eabi/4.8.3/../../../../arm-none-eabi/lib/armv7-m\libc.a(lib_a-freer.o)
__malloc_trim_threshold                           c:/users/softegg/appdata/local/arduino15/packages/arduino/tools/arm-none-eabi-gcc/4.8.3-2014q1/bin/../lib/gcc/arm-none-eabi/4.8.3/../../../../arm-none-eabi/lib/armv7-m\libc.a(lib_a-mallocr.o)
                                                  c:/users/softegg/appdata/local/arduino15/packages/arduino/tools/arm-none-eabi-gcc/4.8.3-2014q1/bin/../lib/gcc/arm-none-eabi/4.8.3/../../../../arm-none-eabi/lib/armv7-m\libc.a(lib_a-freer.o)
__malloc_unlock                                   c:/users/softegg/appdata/local/arduino15/packages/arduino/tools/arm-none-eabi-gcc/4.8.3-2014q1/bin/../lib/gcc/arm-none-eabi/4.8.3/../../../../arm-none-eabi/lib/armv7-m\libc.a(lib_a-mlock.o)
                                                  c:/users/softegg/appdata/local/arduino15/packages/arduino/tools/arm-none-eabi-gcc/4.8.3-2014q1/bin/../lib/gcc/arm-none-eabi/4.8.3/../../../../arm-none-eabi/lib/armv7-m\libc.a(lib_a-freer.o)
                                                  c:/users/softegg/appdata/local/arduino15/packages/arduino/tools/arm-none-eabi-gcc/4.8.3-2014q1/bin/../lib/gcc/arm-none-eabi/4.8.3/../../../../arm-none-eabi/lib/armv7-m\libc.a(lib_a-mallocr.o)
__msp_init                                        D:\projects\arduino\buildtemp\core\core.a(vector_table.S.o)
                                                  D:\projects\arduino\buildtemp\core\wirish\start.S.o
__muldf3                                          c:/users/softegg/appdata/local/arduino15/packages/arduino/tools/arm-none-eabi-gcc/4.8.3-2014q1/bin/../lib/gcc/arm-none-eabi/4.8.3/armv7-m\libgcc.a(_arm_muldivdf3.o)
__mulsf3                                          c:/users/softegg/appdata/local/arduino15/packages/arduino/tools/arm-none-eabi-gcc/4.8.3-2014q1/bin/../lib/gcc/arm-none-eabi/4.8.3/armv7-m\libgcc.a(_arm_muldivsf3.o)
__nedf2                                           c:/users/softegg/appdata/local/arduino15/packages/arduino/tools/arm-none-eabi-gcc/4.8.3-2014q1/bin/../lib/gcc/arm-none-eabi/4.8.3/armv7-m\libgcc.a(_arm_cmpdf2.o)
__nesf2                                           c:/users/softegg/appdata/local/arduino15/packages/arduino/tools/arm-none-eabi-gcc/4.8.3-2014q1/bin/../lib/gcc/arm-none-eabi/4.8.3/armv7-m\libgcc.a(_arm_cmpsf2.o)
__preinit_array_end                               c:/users/softegg/appdata/local/arduino15/packages/arduino/tools/arm-none-eabi-gcc/4.8.3-2014q1/bin/../lib/gcc/arm-none-eabi/4.8.3/../../../../arm-none-eabi/lib/armv7-m\libc.a(lib_a-init.o)
__preinit_array_start                             c:/users/softegg/appdata/local/arduino15/packages/arduino/tools/arm-none-eabi-gcc/4.8.3-2014q1/bin/../lib/gcc/arm-none-eabi/4.8.3/../../../../arm-none-eabi/lib/armv7-m\libc.a(lib_a-init.o)
__register_exitproc                               c:/users/softegg/appdata/local/arduino15/packages/arduino/tools/arm-none-eabi-gcc/4.8.3-2014q1/bin/../lib/gcc/arm-none-eabi/4.8.3/../../../../arm-none-eabi/lib/armv7-m\libc.a(lib_a-__atexit.o)
                                                  c:/users/softegg/appdata/local/arduino15/packages/arduino/tools/arm-none-eabi-gcc/4.8.3-2014q1/bin/../lib/gcc/arm-none-eabi/4.8.3/../../../../arm-none-eabi/lib/armv7-m\libc.a(lib_a-atexit.o)
                                                  c:/users/softegg/appdata/local/arduino15/packages/arduino/tools/arm-none-eabi-gcc/4.8.3-2014q1/bin/../lib/gcc/arm-none-eabi/4.8.3/../../../../arm-none-eabi/lib/armv7-m\libc.a(lib_a-cxa_atexit.o)
__register_frame_info                             c:/users/softegg/appdata/local/arduino15/packages/arduino/tools/arm-none-eabi-gcc/4.8.3-2014q1/bin/../lib/gcc/arm-none-eabi/4.8.3/armv7-m/crtbegin.o
__stack                                           c:/users/softegg/appdata/local/arduino15/packages/arduino/tools/arm-none-eabi-gcc/4.8.3-2014q1/bin/../lib/gcc/arm-none-eabi/4.8.3/../../../../arm-none-eabi/lib/armv7-m/crt0.o
__start__                                         D:\projects\arduino\buildtemp\core\wirish\start.S.o
__stm32_vector_table                              D:\projects\arduino\buildtemp\core\core.a(vector_table.S.o)
__stm32reservedexception10                        D:\projects\arduino\buildtemp\core\core.a(isrs.S.o)
                                                  D:\projects\arduino\buildtemp\core\core.a(vector_table.S.o)
__stm32reservedexception13                        D:\projects\arduino\buildtemp\core\core.a(isrs.S.o)
                                                  D:\projects\arduino\buildtemp\core\core.a(vector_table.S.o)
__stm32reservedexception7                         D:\projects\arduino\buildtemp\core\core.a(isrs.S.o)
                                                  D:\projects\arduino\buildtemp\core\core.a(vector_table.S.o)
__stm32reservedexception8                         D:\projects\arduino\buildtemp\core\core.a(isrs.S.o)
                                                  D:\projects\arduino\buildtemp\core\core.a(vector_table.S.o)
__stm32reservedexception9                         D:\projects\arduino\buildtemp\core\core.a(isrs.S.o)
                                                  D:\projects\arduino\buildtemp\core\core.a(vector_table.S.o)
__subdf3                                          c:/users/softegg/appdata/local/arduino15/packages/arduino/tools/arm-none-eabi-gcc/4.8.3-2014q1/bin/../lib/gcc/arm-none-eabi/4.8.3/armv7-m\libgcc.a(_arm_addsubdf3.o)
__subsf3                                          c:/users/softegg/appdata/local/arduino15/packages/arduino/tools/arm-none-eabi-gcc/4.8.3-2014q1/bin/../lib/gcc/arm-none-eabi/4.8.3/armv7-m\libgcc.a(_arm_addsubsf3.o)
__truncdfsf2                                      c:/users/softegg/appdata/local/arduino15/packages/arduino/tools/arm-none-eabi-gcc/4.8.3-2014q1/bin/../lib/gcc/arm-none-eabi/4.8.3/armv7-m\libgcc.a(_arm_truncdfsf2.o)
__udivdi3                                         c:/users/softegg/appdata/local/arduino15/packages/arduino/tools/arm-none-eabi-gcc/4.8.3-2014q1/bin/../lib/gcc/arm-none-eabi/4.8.3/armv7-m\libgcc.a(_udivdi3.o)
                                                  c:/users/softegg/appdata/local/arduino15/packages/arduino/tools/arm-none-eabi-gcc/4.8.3-2014q1/bin/../lib/gcc/arm-none-eabi/4.8.3/armv7-m\libgcc.a(bpabi.o)
_close                                            D:\projects\arduino\buildtemp\core\wirish\syscalls.c.o
_dma_addr_type                                    D:\projects\arduino\buildtemp\core\core.a(dma.c.o)
                                                  D:\projects\arduino\buildtemp\core\core.a(dma_f1.c.o)
_exit                                             D:\projects\arduino\buildtemp\core\wirish\syscalls.c.o
                                                  c:/users/softegg/appdata/local/arduino15/packages/arduino/tools/arm-none-eabi-gcc/4.8.3-2014q1/bin/../lib/gcc/arm-none-eabi/4.8.3/../../../../arm-none-eabi/lib/armv7-m\libc.a(lib_a-exit.o)
_fail                                             D:\projects\arduino\buildtemp\core\core.a(util.c.o)
_fini                                             c:/users/softegg/appdata/local/arduino15/packages/arduino/tools/arm-none-eabi-gcc/4.8.3-2014q1/bin/../lib/gcc/arm-none-eabi/4.8.3/armv7-m/crti.o
                                                  c:/users/softegg/appdata/local/arduino15/packages/arduino/tools/arm-none-eabi-gcc/4.8.3-2014q1/bin/../lib/gcc/arm-none-eabi/4.8.3/../../../../arm-none-eabi/lib/armv7-m\libc.a(lib_a-fini.o)
_free_r                                           c:/users/softegg/appdata/local/arduino15/packages/arduino/tools/arm-none-eabi-gcc/4.8.3-2014q1/bin/../lib/gcc/arm-none-eabi/4.8.3/../../../../arm-none-eabi/lib/armv7-m\libc.a(lib_a-freer.o)
                                                  c:/users/softegg/appdata/local/arduino15/packages/arduino/tools/arm-none-eabi-gcc/4.8.3-2014q1/bin/../lib/gcc/arm-none-eabi/4.8.3/../../../../arm-none-eabi/lib/armv7-m\libc.a(lib_a-reent.o)
                                                  c:/users/softegg/appdata/local/arduino15/packages/arduino/tools/arm-none-eabi-gcc/4.8.3-2014q1/bin/../lib/gcc/arm-none-eabi/4.8.3/../../../../arm-none-eabi/lib/armv7-m\libc.a(lib_a-mallocr.o)
                                                  c:/users/softegg/appdata/local/arduino15/packages/arduino/tools/arm-none-eabi-gcc/4.8.3-2014q1/bin/../lib/gcc/arm-none-eabi/4.8.3/../../../../arm-none-eabi/lib/armv7-m\libc.a(lib_a-malloc.o)
_fstat                                            D:\projects\arduino\buildtemp\core\wirish\syscalls.c.o
_global_impure_ptr                                c:/users/softegg/appdata/local/arduino15/packages/arduino/tools/arm-none-eabi-gcc/4.8.3-2014q1/bin/../lib/gcc/arm-none-eabi/4.8.3/../../../../arm-none-eabi/lib/armv7-m\libc.a(lib_a-impure.o)
                                                  c:/users/softegg/appdata/local/arduino15/packages/arduino/tools/arm-none-eabi-gcc/4.8.3-2014q1/bin/../lib/gcc/arm-none-eabi/4.8.3/../../../../arm-none-eabi/lib/armv7-m\libc.a(lib_a-__call_atexit.o)
                                                  c:/users/softegg/appdata/local/arduino15/packages/arduino/tools/arm-none-eabi-gcc/4.8.3-2014q1/bin/../lib/gcc/arm-none-eabi/4.8.3/../../../../arm-none-eabi/lib/armv7-m\libc.a(lib_a-__atexit.o)
                                                  c:/users/softegg/appdata/local/arduino15/packages/arduino/tools/arm-none-eabi-gcc/4.8.3-2014q1/bin/../lib/gcc/arm-none-eabi/4.8.3/../../../../arm-none-eabi/lib/armv7-m\libc.a(lib_a-exit.o)
_i2c_irq_error_handler                            D:\projects\arduino\buildtemp\core\core.a(i2c.c.o)
                                                  D:\projects\arduino\buildtemp\core\core.a(i2c_f1.c.o)
_i2c_irq_handler                                  D:\projects\arduino\buildtemp\core\core.a(i2c.c.o)
                                                  D:\projects\arduino\buildtemp\core\core.a(i2c_f1.c.o)
_i2c_irq_priority_fixup                           D:\projects\arduino\buildtemp\core\core.a(i2c_f1.c.o)
                                                  D:\projects\arduino\buildtemp\core\core.a(i2c.c.o)
_impure_ptr                                       c:/users/softegg/appdata/local/arduino15/packages/arduino/tools/arm-none-eabi-gcc/4.8.3-2014q1/bin/../lib/gcc/arm-none-eabi/4.8.3/../../../../arm-none-eabi/lib/armv7-m\libc.a(lib_a-impure.o)
                                                  c:/users/softegg/appdata/local/arduino15/packages/arduino/tools/arm-none-eabi-gcc/4.8.3-2014q1/bin/../lib/gcc/arm-none-eabi/4.8.3/../../../../arm-none-eabi/lib/armv7-m\libc.a(lib_a-reent.o)
                                                  c:/users/softegg/appdata/local/arduino15/packages/arduino/tools/arm-none-eabi-gcc/4.8.3-2014q1/bin/../lib/gcc/arm-none-eabi/4.8.3/../../../../arm-none-eabi/lib/armv7-m\libc.a(lib_a-malloc.o)
                                                  c:/users/softegg/appdata/local/arduino15/packages/arduino/tools/arm-none-eabi-gcc/4.8.3-2014q1/bin/../lib/gcc/arm-none-eabi/4.8.3/../../../../arm-none-eabi/lib/armv7-m\libc.a(lib_a-errno.o)
_init                                             c:/users/softegg/appdata/local/arduino15/packages/arduino/tools/arm-none-eabi-gcc/4.8.3-2014q1/bin/../lib/gcc/arm-none-eabi/4.8.3/armv7-m/crti.o
                                                  c:/users/softegg/appdata/local/arduino15/packages/arduino/tools/arm-none-eabi-gcc/4.8.3-2014q1/bin/../lib/gcc/arm-none-eabi/4.8.3/../../../../arm-none-eabi/lib/armv7-m\libc.a(lib_a-init.o)
_isatty                                           D:\projects\arduino\buildtemp\core\wirish\syscalls.c.o
_lm_heap_end                                      D:\projects\arduino\buildtemp\core\wirish\syscalls.c.o
_lm_heap_start                                    D:\projects\arduino\buildtemp\core\wirish\syscalls.c.o
_lm_rom_img_cfgp                                  D:\projects\arduino\buildtemp\core\wirish\start_c.c.o
_lseek                                            D:\projects\arduino\buildtemp\core\wirish\syscalls.c.o
_mainCRTStartup                                   c:/users/softegg/appdata/local/arduino15/packages/arduino/tools/arm-none-eabi-gcc/4.8.3-2014q1/bin/../lib/gcc/arm-none-eabi/4.8.3/../../../../arm-none-eabi/lib/armv7-m/crt0.o
_malloc_r                                         c:/users/softegg/appdata/local/arduino15/packages/arduino/tools/arm-none-eabi-gcc/4.8.3-2014q1/bin/../lib/gcc/arm-none-eabi/4.8.3/../../../../arm-none-eabi/lib/armv7-m\libc.a(lib_a-mallocr.o)
                                                  c:/users/softegg/appdata/local/arduino15/packages/arduino/tools/arm-none-eabi-gcc/4.8.3-2014q1/bin/../lib/gcc/arm-none-eabi/4.8.3/../../../../arm-none-eabi/lib/armv7-m\libc.a(lib_a-malloc.o)
_malloc_trim_r                                    c:/users/softegg/appdata/local/arduino15/packages/arduino/tools/arm-none-eabi-gcc/4.8.3-2014q1/bin/../lib/gcc/arm-none-eabi/4.8.3/../../../../arm-none-eabi/lib/armv7-m\libc.a(lib_a-freer.o)
_open                                             D:\projects\arduino\buildtemp\core\wirish\syscalls.c.o
_read                                             D:\projects\arduino\buildtemp\core\wirish\syscalls.c.o
_reclaim_reent                                    c:/users/softegg/appdata/local/arduino15/packages/arduino/tools/arm-none-eabi-gcc/4.8.3-2014q1/bin/../lib/gcc/arm-none-eabi/4.8.3/../../../../arm-none-eabi/lib/armv7-m\libc.a(lib_a-reent.o)
_sbrk                                             D:\projects\arduino\buildtemp\core\wirish\syscalls.c.o
                                                  c:/users/softegg/appdata/local/arduino15/packages/arduino/tools/arm-none-eabi-gcc/4.8.3-2014q1/bin/../lib/gcc/arm-none-eabi/4.8.3/../../../../arm-none-eabi/lib/armv7-m\libc.a(lib_a-sbrkr.o)
_sbrk_r                                           c:/users/softegg/appdata/local/arduino15/packages/arduino/tools/arm-none-eabi-gcc/4.8.3-2014q1/bin/../lib/gcc/arm-none-eabi/4.8.3/../../../../arm-none-eabi/lib/armv7-m\libc.a(lib_a-sbrkr.o)
                                                  c:/users/softegg/appdata/local/arduino15/packages/arduino/tools/arm-none-eabi-gcc/4.8.3-2014q1/bin/../lib/gcc/arm-none-eabi/4.8.3/../../../../arm-none-eabi/lib/armv7-m\libc.a(lib_a-freer.o)
                                                  c:/users/softegg/appdata/local/arduino15/packages/arduino/tools/arm-none-eabi-gcc/4.8.3-2014q1/bin/../lib/gcc/arm-none-eabi/4.8.3/../../../../arm-none-eabi/lib/armv7-m\libc.a(lib_a-mallocr.o)
_start                                            c:/users/softegg/appdata/local/arduino15/packages/arduino/tools/arm-none-eabi-gcc/4.8.3-2014q1/bin/../lib/gcc/arm-none-eabi/4.8.3/../../../../arm-none-eabi/lib/armv7-m/crt0.o
_usart_clock_freq                                 D:\projects\arduino\buildtemp\core\core.a(usart_private.c.o)
                                                  D:\projects\arduino\buildtemp\core\core.a(usart_f1.c.o)
_write                                            D:\projects\arduino\buildtemp\core\wirish\syscalls.c.o
abort                                             D:\projects\arduino\buildtemp\core\core.a(util.c.o)
                                                  D:\projects\arduino\buildtemp\core\core.a(Print.cpp.o)
adc                                               D:\projects\arduino\buildtemp\libraries\Mozzi-master\MozziGuts.cpp.o
                                                  D:\projects\arduino\buildtemp\libraries\Mozzi-master\mozzi_rand.cpp.o
                                                  D:\projects\arduino\buildtemp\libraries\Mozzi-master\mozzi_analog.cpp.o
adc1                                              D:\projects\arduino\buildtemp\core\core.a(adc_f1.c.o)
                                                  D:\projects\arduino\buildtemp\core\board.cpp.o
adc2                                              D:\projects\arduino\buildtemp\core\core.a(adc_f1.c.o)
adcDisconnectAllDigitalIns()                      D:\projects\arduino\buildtemp\libraries\Mozzi-master\mozzi_analog.cpp.o
adcPinToChannelNum(unsigned char)                 D:\projects\arduino\buildtemp\libraries\Mozzi-master\mozzi_analog.cpp.o
adcReadSelectedChannels()                         D:\projects\arduino\buildtemp\libraries\Mozzi-master\mozzi_analog.cpp.o
adcReconnectAllDigitalIns()                       D:\projects\arduino\buildtemp\libraries\Mozzi-master\mozzi_analog.cpp.o
adcStartConversion(unsigned char)                 D:\projects\arduino\buildtemp\libraries\Mozzi-master\mozzi_analog.cpp.o
adcStartReadCycle()                               D:\projects\arduino\buildtemp\libraries\Mozzi-master\mozzi_analog.cpp.o
                                                  D:\projects\arduino\buildtemp\libraries\Mozzi-master\MozziGuts.cpp.o
adc_attach_interrupt                              D:\projects\arduino\buildtemp\core\core.a(adc_f1.c.o)
                                                  D:\projects\arduino\buildtemp\libraries\STM32ADC\STM32ADC.cpp.o
adc_calibrate                                     D:\projects\arduino\buildtemp\core\core.a(adc_f1.c.o)
                                                  D:\projects\arduino\buildtemp\libraries\STM32ADC\STM32ADC.cpp.o
adc_config_gpio                                   D:\projects\arduino\buildtemp\core\core.a(adc_f1.c.o)
adc_dma_disable                                   D:\projects\arduino\buildtemp\libraries\STM32ADC\utility\util_adc.c.o
adc_dma_enable                                    D:\projects\arduino\buildtemp\libraries\STM32ADC\utility\util_adc.c.o
adc_dma_enable(adc_dev*)                          D:\projects\arduino\buildtemp\libraries\STM32ADC\STM32ADC.cpp.o
adc_enable_irq                                    D:\projects\arduino\buildtemp\core\core.a(adc_f1.c.o)
adc_enable_single_swstart                         D:\projects\arduino\buildtemp\core\core.a(adc_f1.c.o)
                                                  D:\projects\arduino\buildtemp\core\wirish\boards.cpp.o
adc_foreach                                       D:\projects\arduino\buildtemp\core\core.a(adc_f1.c.o)
                                                  D:\projects\arduino\buildtemp\core\wirish\boards.cpp.o
adc_init                                          D:\projects\arduino\buildtemp\core\core.a(adc.c.o)
                                                  D:\projects\arduino\buildtemp\core\core.a(adc_f1.c.o)
adc_read                                          D:\projects\arduino\buildtemp\core\core.a(adc.c.o)
                                                  D:\projects\arduino\buildtemp\libraries\STM32ADC\STM32ADC.cpp.o
adc_result                                        D:\projects\arduino\buildtemp\libraries\STM32ADC\utility\util_adc.c.o
adc_set_extsel                                    D:\projects\arduino\buildtemp\core\core.a(adc.c.o)
                                                  D:\projects\arduino\buildtemp\core\core.a(adc_f1.c.o)
                                                  D:\projects\arduino\buildtemp\libraries\STM32ADC\STM32ADC.cpp.o
adc_set_prescaler                                 D:\projects\arduino\buildtemp\core\core.a(adc_f1.c.o)
                                                  D:\projects\arduino\buildtemp\core\wirish\boards.cpp.o
adc_set_reg_seq_channel                           D:\projects\arduino\buildtemp\libraries\STM32ADC\utility\util_adc.c.o
adc_set_reg_seq_channel(adc_dev*, unsigned char*, unsigned char) D:\projects\arduino\buildtemp\libraries\STM32ADC\STM32ADC.cpp.o
adc_set_sample_rate                               D:\projects\arduino\buildtemp\core\core.a(adc.c.o)
                                                  D:\projects\arduino\buildtemp\core\wirish\boards.cpp.o
                                                  D:\projects\arduino\buildtemp\libraries\STM32ADC\STM32ADC.cpp.o
afio_init                                         D:\projects\arduino\buildtemp\core\core.a(gpio_f1.c.o)
                                                  D:\projects\arduino\buildtemp\core\wirish\boards_setup.cpp.o
afio_remap                                        D:\projects\arduino\buildtemp\core\core.a(gpio_f1.c.o)
                                                  D:\projects\arduino\buildtemp\core\core.a(i2c.c.o)
                                                  D:\projects\arduino\buildtemp\core\core.a(i2c_f1.c.o)
analogWrite(unsigned char, int)                   D:\projects\arduino\buildtemp\core\core.a(pwm.cpp.o)
atexit                                            c:/users/softegg/appdata/local/arduino15/packages/arduino/tools/arm-none-eabi-gcc/4.8.3-2014q1/bin/../lib/gcc/arm-none-eabi/4.8.3/../../../../arm-none-eabi/lib/armv7-m\libc.a(lib_a-atexit.o)
                                                  c:/users/softegg/appdata/local/arduino15/packages/arduino/tools/arm-none-eabi-gcc/4.8.3-2014q1/bin/../lib/gcc/arm-none-eabi/4.8.3/../../../../arm-none-eabi/lib/armv7-m\libc.a(lib_a-__call_atexit.o)
                                                  c:/users/softegg/appdata/local/arduino15/packages/arduino/tools/arm-none-eabi-gcc/4.8.3-2014q1/bin/../lib/gcc/arm-none-eabi/4.8.3/../../../../arm-none-eabi/lib/armv7-m/crt0.o
audioHook()                                       D:\projects\arduino\buildtemp\libraries\Mozzi-master\MozziGuts.cpp.o
                                                  D:\projects\arduino\buildtemp\sketch\Stylish.pde.cpp.o
audioTicks()                                      D:\projects\arduino\buildtemp\libraries\Mozzi-master\MozziGuts.cpp.o
audio_pwm_timer                                   D:\projects\arduino\buildtemp\libraries\Mozzi-master\MozziGuts.cpp.o
audio_update_timer                                D:\projects\arduino\buildtemp\libraries\Mozzi-master\MozziGuts.cpp.o
balance                                           D:\projects\arduino\buildtemp\sketch\Stylish.pde.cpp.o
bkp                                               D:\projects\arduino\buildtemp\core\core.a(bkp_f1.c.o)
bkp_disable_writes                                D:\projects\arduino\buildtemp\core\core.a(bkp_f1.c.o)
                                                  D:\projects\arduino\buildtemp\core\core.a(usb_serial.cpp.o)
bkp_enable_writes                                 D:\projects\arduino\buildtemp\core\core.a(bkp_f1.c.o)
                                                  D:\projects\arduino\buildtemp\core\core.a(usb_serial.cpp.o)
bkp_init                                          D:\projects\arduino\buildtemp\core\core.a(bkp_f1.c.o)
                                                  D:\projects\arduino\buildtemp\core\core.a(usb_serial.cpp.o)
bkp_read                                          D:\projects\arduino\buildtemp\core\core.a(bkp_f1.c.o)
bkp_write                                         D:\projects\arduino\buildtemp\core\core.a(bkp_f1.c.o)
                                                  D:\projects\arduino\buildtemp\core\core.a(usb_serial.cpp.o)
boardADCPins                                      D:\projects\arduino\buildtemp\core\board.cpp.o
boardInit()                                       D:\projects\arduino\buildtemp\core\board.cpp.o
boardPWMPins                                      D:\projects\arduino\buildtemp\core\board.cpp.o
boardUsedPins                                     D:\projects\arduino\buildtemp\core\board.cpp.o
                                                  D:\projects\arduino\buildtemp\core\wirish\boards.cpp.o
boardUsesPin(unsigned char)                       D:\projects\arduino\buildtemp\core\wirish\boards.cpp.o
cgets                                             D:\projects\arduino\buildtemp\core\wirish\syscalls.c.o
cleanup_glue                                      c:/users/softegg/appdata/local/arduino15/packages/arduino/tools/arm-none-eabi-gcc/4.8.3-2014q1/bin/../lib/gcc/arm-none-eabi/4.8.3/../../../../arm-none-eabi/lib/armv7-m\libc.a(lib_a-reent.o)
copysign                                          c:/users/softegg/appdata/local/arduino15/packages/arduino/tools/arm-none-eabi-gcc/4.8.3-2014q1/bin/../lib/gcc/arm-none-eabi/4.8.3/../../../../arm-none-eabi/lib/armv7-m\libm.a(lib_a-s_copysign.o)
                                                  c:/users/softegg/appdata/local/arduino15/packages/arduino/tools/arm-none-eabi-gcc/4.8.3-2014q1/bin/../lib/gcc/arm-none-eabi/4.8.3/../../../../arm-none-eabi/lib/armv7-m\libm.a(lib_a-s_scalbn.o)
counter                                           D:\projects\arduino\buildtemp\sketch\Stylish.pde.cpp.o
crMask(unsigned long)                             D:\projects\arduino\buildtemp\sketch\flashwriter.cpp.o
current_mode_button                               D:\projects\arduino\buildtemp\sketch\Stylish.pde.cpp.o
digitalRead(unsigned char)                        D:\projects\arduino\buildtemp\core\core.a(wirish_digital.cpp.o)
                                                  D:\projects\arduino\buildtemp\sketch\Stylish.pde.cpp.o
digitalWrite(unsigned char, unsigned char)        D:\projects\arduino\buildtemp\core\core.a(wirish_digital.cpp.o)
disconnectDigitalIn(unsigned char)                D:\projects\arduino\buildtemp\libraries\Mozzi-master\mozzi_analog.cpp.o
dma_attach_interrupt                              D:\projects\arduino\buildtemp\core\core.a(dma_f1.c.o)
                                                  D:\projects\arduino\buildtemp\libraries\STM32ADC\STM32ADC.cpp.o
                                                  D:\projects\arduino\buildtemp\libraries\SPI\SPI.cpp.o
dma_detach_interrupt                              D:\projects\arduino\buildtemp\core\core.a(dma_f1.c.o)
                                                  D:\projects\arduino\buildtemp\libraries\SPI\SPI.cpp.o
dma_disable                                       D:\projects\arduino\buildtemp\core\core.a(dma_f1.c.o)
                                                  D:\projects\arduino\buildtemp\libraries\SPI\SPI.cpp.o
dma_enable                                        D:\projects\arduino\buildtemp\core\core.a(dma_f1.c.o)
                                                  D:\projects\arduino\buildtemp\libraries\STM32ADC\STM32ADC.cpp.o
                                                  D:\projects\arduino\buildtemp\libraries\SPI\SPI.cpp.o
dma_get_irq_cause                                 D:\projects\arduino\buildtemp\core\core.a(dma_f1.c.o)
dma_init                                          D:\projects\arduino\buildtemp\core\core.a(dma.c.o)
                                                  D:\projects\arduino\buildtemp\libraries\STM32ADC\STM32ADC.cpp.o
                                                  D:\projects\arduino\buildtemp\libraries\SPI\SPI.cpp.o
dma_set_mem_addr                                  D:\projects\arduino\buildtemp\core\core.a(dma_f1.c.o)
dma_set_num_transfers                             D:\projects\arduino\buildtemp\core\core.a(dma_f1.c.o)
                                                  D:\projects\arduino\buildtemp\libraries\STM32ADC\STM32ADC.cpp.o
                                                  D:\projects\arduino\buildtemp\libraries\SPI\SPI.cpp.o
dma_set_per_addr                                  D:\projects\arduino\buildtemp\core\core.a(dma_f1.c.o)
dma_set_priority                                  D:\projects\arduino\buildtemp\core\core.a(dma_f1.c.o)
                                                  D:\projects\arduino\buildtemp\libraries\SPI\SPI.cpp.o
dma_setup_transfer                                D:\projects\arduino\buildtemp\core\core.a(dma_f1.c.o)
                                                  D:\projects\arduino\buildtemp\libraries\STM32ADC\STM32ADC.cpp.o
                                                  D:\projects\arduino\buildtemp\libraries\SPI\SPI.cpp.o
dma_tube_cfg                                      D:\projects\arduino\buildtemp\core\core.a(dma_f1.c.o)
enable_adc_irq                                    D:\projects\arduino\buildtemp\libraries\STM32ADC\utility\util_adc.c.o
enable_awd                                        D:\projects\arduino\buildtemp\libraries\STM32ADC\utility\util_adc.c.o
enable_awd_irq                                    D:\projects\arduino\buildtemp\libraries\STM32ADC\utility\util_adc.c.o
enable_internal_reading                           D:\projects\arduino\buildtemp\libraries\STM32ADC\utility\util_adc.c.o
enable_internal_reading(adc_dev*)                 D:\projects\arduino\buildtemp\libraries\STM32ADC\STM32ADC.cpp.o
env_sustain_pitch_sub                             D:\projects\arduino\buildtemp\sketch\Stylish.pde.cpp.o
env_to_filter                                     D:\projects\arduino\buildtemp\sketch\Stylish.pde.cpp.o
env_to_noise                                      D:\projects\arduino\buildtemp\sketch\Stylish.pde.cpp.o
env_to_pitch1                                     D:\projects\arduino\buildtemp\sketch\Stylish.pde.cpp.o
env_to_pitch2                                     D:\projects\arduino\buildtemp\sketch\Stylish.pde.cpp.o
env_to_pwm                                        D:\projects\arduino\buildtemp\sketch\Stylish.pde.cpp.o
envelope                                          D:\projects\arduino\buildtemp\sketch\Stylish.pde.cpp.o
errno                                             c:/users/softegg/appdata/local/arduino15/packages/arduino/tools/arm-none-eabi-gcc/4.8.3-2014q1/bin/../lib/gcc/arm-none-eabi/4.8.3/../../../../arm-none-eabi/lib/armv7-m\libc.a(lib_a-reent.o)
                                                  c:/users/softegg/appdata/local/arduino15/packages/arduino/tools/arm-none-eabi-gcc/4.8.3-2014q1/bin/../lib/gcc/arm-none-eabi/4.8.3/../../../../arm-none-eabi/lib/armv7-m\libc.a(lib_a-sbrkr.o)
exit                                              c:/users/softegg/appdata/local/arduino15/packages/arduino/tools/arm-none-eabi-gcc/4.8.3-2014q1/bin/../lib/gcc/arm-none-eabi/4.8.3/../../../../arm-none-eabi/lib/armv7-m\libc.a(lib_a-exit.o)
                                                  D:\projects\arduino\buildtemp\core\wirish\start_c.c.o
                                                  c:/users/softegg/appdata/local/arduino15/packages/arduino/tools/arm-none-eabi-gcc/4.8.3-2014q1/bin/../lib/gcc/arm-none-eabi/4.8.3/../../../../arm-none-eabi/lib/armv7-m/crt0.o
exti_attach_callback                              D:\projects\arduino\buildtemp\core\core.a(exti.c.o)
exti_attach_interrupt                             D:\projects\arduino\buildtemp\core\core.a(exti.c.o)
exti_detach_interrupt                             D:\projects\arduino\buildtemp\core\core.a(exti.c.o)
exti_do_select                                    D:\projects\arduino\buildtemp\core\core.a(exti.c.o)
                                                  D:\projects\arduino\buildtemp\core\core.a(exti_f1.c.o)
exti_select                                       D:\projects\arduino\buildtemp\core\core.a(exti_f1.c.o)
                                                  D:\projects\arduino\buildtemp\core\core.a(exti.c.o)
fabs                                              c:/users/softegg/appdata/local/arduino15/packages/arduino/tools/arm-none-eabi-gcc/4.8.3-2014q1/bin/../lib/gcc/arm-none-eabi/4.8.3/../../../../arm-none-eabi/lib/armv7-m\libm.a(lib_a-s_fabs.o)
                                                  c:/users/softegg/appdata/local/arduino15/packages/arduino/tools/arm-none-eabi-gcc/4.8.3-2014q1/bin/../lib/gcc/arm-none-eabi/4.8.3/../../../../arm-none-eabi/lib/armv7-m\libm.a(lib_a-e_pow.o)
fgets                                             D:\projects\arduino\buildtemp\core\wirish\syscalls.c.o
filter_f                                          D:\projects\arduino\buildtemp\sketch\Stylish.pde.cpp.o
filter_q                                          D:\projects\arduino\buildtemp\sketch\Stylish.pde.cpp.o
fine_freq1                                        D:\projects\arduino\buildtemp\sketch\Stylish.pde.cpp.o
fine_freq2                                        D:\projects\arduino\buildtemp\sketch\Stylish.pde.cpp.o
finite                                            c:/users/softegg/appdata/local/arduino15/packages/arduino/tools/arm-none-eabi-gcc/4.8.3-2014q1/bin/../lib/gcc/arm-none-eabi/4.8.3/../../../../arm-none-eabi/lib/armv7-m\libm.a(lib_a-s_finite.o)
                                                  c:/users/softegg/appdata/local/arduino15/packages/arduino/tools/arm-none-eabi-gcc/4.8.3-2014q1/bin/../lib/gcc/arm-none-eabi/4.8.3/../../../../arm-none-eabi/lib/armv7-m\libm.a(lib_a-w_pow.o)
flashErasePage(unsigned long)                     D:\projects\arduino\buildtemp\sketch\flashwriter.cpp.o
                                                  D:\projects\arduino\buildtemp\sketch\Stylish.pde.cpp.o
flashErasePages(unsigned long, unsigned short)    D:\projects\arduino\buildtemp\sketch\flashwriter.cpp.o
flashLock()                                       D:\projects\arduino\buildtemp\sketch\flashwriter.cpp.o
                                                  D:\projects\arduino\buildtemp\sketch\Stylish.pde.cpp.o
flashUnlock()                                     D:\projects\arduino\buildtemp\sketch\flashwriter.cpp.o
                                                  D:\projects\arduino\buildtemp\sketch\Stylish.pde.cpp.o
flashWriteWord(unsigned long, unsigned long)      D:\projects\arduino\buildtemp\sketch\flashwriter.cpp.o
                                                  D:\projects\arduino\buildtemp\sketch\Stylish.pde.cpp.o
flash_set_latency                                 D:\projects\arduino\buildtemp\core\core.a(flash.c.o)
                                                  D:\projects\arduino\buildtemp\core\wirish\boards.cpp.o
free                                              c:/users/softegg/appdata/local/arduino15/packages/arduino/tools/arm-none-eabi-gcc/4.8.3-2014q1/bin/../lib/gcc/arm-none-eabi/4.8.3/../../../../arm-none-eabi/lib/armv7-m\libc.a(lib_a-malloc.o)
                                                  c:/users/softegg/appdata/local/arduino15/packages/arduino/tools/arm-none-eabi-gcc/4.8.3-2014q1/bin/../lib/gcc/arm-none-eabi/4.8.3/../../../../arm-none-eabi/lib/armv7-m\libc.a(lib_a-__call_atexit.o)
                                                  D:\projects\arduino\buildtemp\libraries\WS2812B\WS2812B.cpp.o
gain                                              D:\projects\arduino\buildtemp\sketch\Stylish.pde.cpp.o
getFlashEnd()                                     D:\projects\arduino\buildtemp\sketch\flashwriter.cpp.o
                                                  D:\projects\arduino\buildtemp\sketch\Stylish.pde.cpp.o
getFlashPageSize()                                D:\projects\arduino\buildtemp\sketch\flashwriter.cpp.o
                                                  D:\projects\arduino\buildtemp\sketch\Stylish.pde.cpp.o
get_direction                                     D:\projects\arduino\buildtemp\core\core.a(timer.c.o)
getch                                             D:\projects\arduino\buildtemp\core\wirish\syscalls.c.o
gpio_get_mode                                     D:\projects\arduino\buildtemp\core\core.a(gpio_f1.c.o)
gpio_init                                         D:\projects\arduino\buildtemp\core\core.a(gpio.c.o)
                                                  D:\projects\arduino\buildtemp\core\core.a(gpio_f1.c.o)
gpio_init_all                                     D:\projects\arduino\buildtemp\core\core.a(gpio_f1.c.o)
                                                  D:\projects\arduino\buildtemp\core\wirish\boards_setup.cpp.o
gpio_set_mode                                     D:\projects\arduino\buildtemp\core\core.a(gpio_f1.c.o)
                                                  D:\projects\arduino\buildtemp\core\core.a(wirish_digital_f1.cpp.o)
                                                  D:\projects\arduino\buildtemp\core\core.a(util.c.o)
                                                  D:\projects\arduino\buildtemp\core\core.a(usb_cdcacm.c.o)
                                                  D:\projects\arduino\buildtemp\core\core.a(usart_f1.c.o)
                                                  D:\projects\arduino\buildtemp\core\core.a(spi_f1.c.o)
                                                  D:\projects\arduino\buildtemp\core\core.a(i2c_f1.c.o)
                                                  D:\projects\arduino\buildtemp\core\core.a(adc_f1.c.o)
                                                  D:\projects\arduino\buildtemp\core\wirish\boards_setup.cpp.o
gpioa                                             D:\projects\arduino\buildtemp\core\core.a(gpio_f1.c.o)
                                                  D:\projects\arduino\buildtemp\core\board.cpp.o
gpiob                                             D:\projects\arduino\buildtemp\core\core.a(gpio_f1.c.o)
                                                  D:\projects\arduino\buildtemp\core\core.a(i2c_f1.c.o)
                                                  D:\projects\arduino\buildtemp\core\board.cpp.o
gpioc                                             D:\projects\arduino\buildtemp\core\core.a(gpio_f1.c.o)
                                                  D:\projects\arduino\buildtemp\core\board.cpp.o
gpiod                                             D:\projects\arduino\buildtemp\core\core.a(gpio_f1.c.o)
hardware_init_hook                                c:/users/softegg/appdata/local/arduino15/packages/arduino/tools/arm-none-eabi-gcc/4.8.3-2014q1/bin/../lib/gcc/arm-none-eabi/4.8.3/../../../../arm-none-eabi/lib/armv7-m/crt0.o
i2c_bus_reset                                     D:\projects\arduino\buildtemp\core\core.a(i2c.c.o)
i2c_config_gpios                                  D:\projects\arduino\buildtemp\core\core.a(i2c_f1.c.o)
                                                  D:\projects\arduino\buildtemp\core\core.a(i2c.c.o)
i2c_init                                          D:\projects\arduino\buildtemp\core\core.a(i2c.c.o)
i2c_master_enable                                 D:\projects\arduino\buildtemp\core\core.a(i2c.c.o)
i2c_master_release_bus                            D:\projects\arduino\buildtemp\core\core.a(i2c_f1.c.o)
                                                  D:\projects\arduino\buildtemp\core\core.a(i2c.c.o)
i2c_master_xfer                                   D:\projects\arduino\buildtemp\core\core.a(i2c.c.o)
init()                                            D:\projects\arduino\buildtemp\core\wirish\boards.cpp.o
                                                  D:\projects\arduino\buildtemp\core\core.a(main.cpp.o)
input_capture_mode                                D:\projects\arduino\buildtemp\core\core.a(timer.c.o)
internalRead                                      D:\projects\arduino\buildtemp\libraries\STM32ADC\utility\util_adc.c.o
internal_patch_data                               D:\projects\arduino\buildtemp\sketch\Stylish.pde.cpp.o
ipow(int, int)                                    D:\projects\arduino\buildtemp\libraries\Mozzi-master\mozzi_fixmath.cpp.o
isatty                                            D:\projects\arduino\buildtemp\core\wirish\syscalls.c.o
isqrt16(unsigned short)                           D:\projects\arduino\buildtemp\libraries\Mozzi-master\mozzi_fixmath.cpp.o
isqrt32(unsigned long)                            D:\projects\arduino\buildtemp\libraries\Mozzi-master\mozzi_fixmath.cpp.o
key_bits                                          D:\projects\arduino\buildtemp\sketch\Stylish.pde.cpp.o
key_down                                          D:\projects\arduino\buildtemp\sketch\Stylish.pde.cpp.o
keyboard_pins                                     D:\projects\arduino\buildtemp\sketch\Stylish.pde.cpp.o
last_key_down                                     D:\projects\arduino\buildtemp\sketch\Stylish.pde.cpp.o
last_key_played                                   D:\projects\arduino\buildtemp\sketch\Stylish.pde.cpp.o
last_patch_number                                 D:\projects\arduino\buildtemp\sketch\Stylish.pde.cpp.o
last_ui_value                                     D:\projects\arduino\buildtemp\sketch\Stylish.pde.cpp.o
lfo                                               D:\projects\arduino\buildtemp\sketch\Stylish.pde.cpp.o
lfo_pitch_add                                     D:\projects\arduino\buildtemp\sketch\Stylish.pde.cpp.o
lfo_rising_speed                                  D:\projects\arduino\buildtemp\sketch\Stylish.pde.cpp.o
lfo_to_filter                                     D:\projects\arduino\buildtemp\sketch\Stylish.pde.cpp.o
lfo_to_noise                                      D:\projects\arduino\buildtemp\sketch\Stylish.pde.cpp.o
lfo_to_pitch                                      D:\projects\arduino\buildtemp\sketch\Stylish.pde.cpp.o
lfo_to_pwm                                        D:\projects\arduino\buildtemp\sketch\Stylish.pde.cpp.o
lfo_to_volume                                     D:\projects\arduino\buildtemp\sketch\Stylish.pde.cpp.o
loop()                                            D:\projects\arduino\buildtemp\sketch\Stylish.pde.cpp.o
                                                  D:\projects\arduino\buildtemp\core\core.a(main.cpp.o)
lpf                                               D:\projects\arduino\buildtemp\sketch\Stylish.pde.cpp.o
main                                              D:\projects\arduino\buildtemp\core\core.a(main.cpp.o)
                                                  D:\projects\arduino\buildtemp\core\wirish\start_c.c.o
                                                  c:/users/softegg/appdata/local/arduino15/packages/arduino/tools/arm-none-eabi-gcc/4.8.3-2014q1/bin/../lib/gcc/arm-none-eabi/4.8.3/../../../../arm-none-eabi/lib/armv7-m/crt0.o
malloc                                            c:/users/softegg/appdata/local/arduino15/packages/arduino/tools/arm-none-eabi-gcc/4.8.3-2014q1/bin/../lib/gcc/arm-none-eabi/4.8.3/../../../../arm-none-eabi/lib/armv7-m\libc.a(lib_a-malloc.o)
                                                  c:/users/softegg/appdata/local/arduino15/packages/arduino/tools/arm-none-eabi-gcc/4.8.3-2014q1/bin/../lib/gcc/arm-none-eabi/4.8.3/../../../../arm-none-eabi/lib/armv7-m\libc.a(lib_a-__atexit.o)
                                                  D:\projects\arduino\buildtemp\libraries\WS2812B\WS2812B.cpp.o
matherr                                           c:/users/softegg/appdata/local/arduino15/packages/arduino/tools/arm-none-eabi-gcc/4.8.3-2014q1/bin/../lib/gcc/arm-none-eabi/4.8.3/../../../../arm-none-eabi/lib/armv7-m\libm.a(lib_a-s_matherr.o)
                                                  c:/users/softegg/appdata/local/arduino15/packages/arduino/tools/arm-none-eabi-gcc/4.8.3-2014q1/bin/../lib/gcc/arm-none-eabi/4.8.3/../../../../arm-none-eabi/lib/armv7-m\libm.a(lib_a-w_pow.o)
memcpy                                            c:/users/softegg/appdata/local/arduino15/packages/arduino/tools/arm-none-eabi-gcc/4.8.3-2014q1/bin/../lib/gcc/arm-none-eabi/4.8.3/../../../../arm-none-eabi/lib/armv7-m\libc.a(lib_a-memcpy.o)
                                                  D:\projects\arduino\buildtemp\libraries\WS2812B\WS2812B.cpp.o
                                                  D:\projects\arduino\buildtemp\sketch\Stylish.pde.cpp.o
memset                                            c:/users/softegg/appdata/local/arduino15/packages/arduino/tools/arm-none-eabi-gcc/4.8.3-2014q1/bin/../lib/gcc/arm-none-eabi/4.8.3/../../../../arm-none-eabi/lib/armv7-m\libc.a(lib_a-memset.o)
                                                  D:\projects\arduino\buildtemp\sketch\Stylish.pde.cpp.o
                                                  c:/users/softegg/appdata/local/arduino15/packages/arduino/tools/arm-none-eabi-gcc/4.8.3-2014q1/bin/../lib/gcc/arm-none-eabi/4.8.3/../../../../arm-none-eabi/lib/armv7-m/crt0.o
mode_parameter_number                             D:\projects\arduino\buildtemp\sketch\Stylish.pde.cpp.o
mode_value                                        D:\projects\arduino\buildtemp\sketch\Stylish.pde.cpp.o
mozziAnalogRead(unsigned char)                    D:\projects\arduino\buildtemp\libraries\Mozzi-master\mozzi_analog.cpp.o
mozziMicros()                                     D:\projects\arduino\buildtemp\libraries\Mozzi-master\MozziGuts.cpp.o
mtof(float)                                       D:\projects\arduino\buildtemp\libraries\Mozzi-master\mozzi_midi.cpp.o
                                                  D:\projects\arduino\buildtemp\sketch\Stylish.pde.cpp.o
mtof(int)                                         D:\projects\arduino\buildtemp\libraries\Mozzi-master\mozzi_midi.cpp.o
mtof(unsigned char)                               D:\projects\arduino\buildtemp\libraries\Mozzi-master\mozzi_midi.cpp.o
nan                                               c:/users/softegg/appdata/local/arduino15/packages/arduino/tools/arm-none-eabi-gcc/4.8.3-2014q1/bin/../lib/gcc/arm-none-eabi/4.8.3/../../../../arm-none-eabi/lib/armv7-m\libm.a(lib_a-s_nan.o)
                                                  c:/users/softegg/appdata/local/arduino15/packages/arduino/tools/arm-none-eabi-gcc/4.8.3-2014q1/bin/../lib/gcc/arm-none-eabi/4.8.3/../../../../arm-none-eabi/lib/armv7-m\libm.a(lib_a-e_pow.o)
noise_gain                                        D:\projects\arduino\buildtemp\sketch\Stylish.pde.cpp.o
noise_max                                         D:\projects\arduino\buildtemp\sketch\Stylish.pde.cpp.o
note1_ofs                                         D:\projects\arduino\buildtemp\sketch\Stylish.pde.cpp.o
note2_ofs                                         D:\projects\arduino\buildtemp\sketch\Stylish.pde.cpp.o
note_off_processed                                D:\projects\arduino\buildtemp\sketch\Stylish.pde.cpp.o
nvic_init                                         D:\projects\arduino\buildtemp\core\core.a(nvic.c.o)
                                                  D:\projects\arduino\buildtemp\core\wirish\boards.cpp.o
nvic_irq_set_priority                             D:\projects\arduino\buildtemp\core\core.a(nvic.c.o)
                                                  D:\projects\arduino\buildtemp\core\core.a(i2c_f1.c.o)
nvic_set_vector_table                             D:\projects\arduino\buildtemp\core\core.a(nvic.c.o)
nvic_sys_reset                                    D:\projects\arduino\buildtemp\core\core.a(nvic.c.o)
                                                  D:\projects\arduino\buildtemp\core\core.a(usb_serial.cpp.o)
osc1                                              D:\projects\arduino\buildtemp\sketch\Stylish.pde.cpp.o
osc1_freq                                         D:\projects\arduino\buildtemp\sketch\Stylish.pde.cpp.o
osc2                                              D:\projects\arduino\buildtemp\sketch\Stylish.pde.cpp.o
osc2_freq                                         D:\projects\arduino\buildtemp\sketch\Stylish.pde.cpp.o
output_buffer                                     D:\projects\arduino\buildtemp\libraries\Mozzi-master\MozziGuts.cpp.o
pInformation                                      D:\projects\arduino\buildtemp\core\core.a(usb_init.c.o)
                                                  D:\projects\arduino\buildtemp\core\core.a(usb_core.c.o)
                                                  D:\projects\arduino\buildtemp\core\core.a(usb_cdcacm.c.o)
                                                  D:\projects\arduino\buildtemp\core\core.a(usb.c.o)
pProperty                                         D:\projects\arduino\buildtemp\core\core.a(usb_init.c.o)
                                                  D:\projects\arduino\buildtemp\core\core.a(usb_core.c.o)
                                                  D:\projects\arduino\buildtemp\core\core.a(usb_cdcacm.c.o)
                                                  D:\projects\arduino\buildtemp\core\core.a(usb.c.o)
pUser_Standard_Requests                           D:\projects\arduino\buildtemp\core\core.a(usb_init.c.o)
                                                  D:\projects\arduino\buildtemp\core\core.a(usb_core.c.o)
                                                  D:\projects\arduino\buildtemp\core\core.a(usb.c.o)
parameter_number                                  D:\projects\arduino\buildtemp\sketch\Stylish.pde.cpp.o
parameter_value                                   D:\projects\arduino\buildtemp\sketch\Stylish.pde.cpp.o
patch_number                                      D:\projects\arduino\buildtemp\sketch\Stylish.pde.cpp.o
patch_number_changed                              D:\projects\arduino\buildtemp\sketch\Stylish.pde.cpp.o
patch_t::Echo()                                   D:\projects\arduino\buildtemp\sketch\Stylish.pde.cpp.o
patch_t::GetAllToLocal()                          D:\projects\arduino\buildtemp\sketch\Stylish.pde.cpp.o
patch_t::SetAllFromLocal()                        D:\projects\arduino\buildtemp\sketch\Stylish.pde.cpp.o
pinMode(unsigned char, WiringPinMode)             D:\projects\arduino\buildtemp\core\core.a(wirish_digital_f1.cpp.o)
                                                  D:\projects\arduino\buildtemp\core\core.a(pwm.cpp.o)
                                                  D:\projects\arduino\buildtemp\libraries\Mozzi-master\MozziGuts.cpp.o
                                                  D:\projects\arduino\buildtemp\sketch\Stylish.pde.cpp.o
poll_adc_convert                                  D:\projects\arduino\buildtemp\libraries\STM32ADC\utility\util_adc.c.o
pow                                               c:/users/softegg/appdata/local/arduino15/packages/arduino/tools/arm-none-eabi-gcc/4.8.3-2014q1/bin/../lib/gcc/arm-none-eabi/4.8.3/../../../../arm-none-eabi/lib/armv7-m\libm.a(lib_a-w_pow.o)
                                                  D:\projects\arduino\buildtemp\libraries\Mozzi-master\mozzi_midi.cpp.o
premain()                                         D:\projects\arduino\buildtemp\core\core.a(main.cpp.o)
pulse_width                                       D:\projects\arduino\buildtemp\sketch\Stylish.pde.cpp.o
putch                                             D:\projects\arduino\buildtemp\core\wirish\syscalls.c.o
pwmWrite(unsigned char, unsigned short)           D:\projects\arduino\buildtemp\core\core.a(pwm.cpp.o)
                                                  D:\projects\arduino\buildtemp\libraries\Mozzi-master\MozziGuts.cpp.o
rand(int)                                         D:\projects\arduino\buildtemp\libraries\Mozzi-master\mozzi_rand.cpp.o
                                                  D:\projects\arduino\buildtemp\sketch\Stylish.pde.cpp.o
rand(int, int)                                    D:\projects\arduino\buildtemp\libraries\Mozzi-master\mozzi_rand.cpp.o
rand(signed char)                                 D:\projects\arduino\buildtemp\libraries\Mozzi-master\mozzi_rand.cpp.o
rand(signed char, signed char)                    D:\projects\arduino\buildtemp\libraries\Mozzi-master\mozzi_rand.cpp.o
rand(unsigned char)                               D:\projects\arduino\buildtemp\libraries\Mozzi-master\mozzi_rand.cpp.o
rand(unsigned char, unsigned char)                D:\projects\arduino\buildtemp\libraries\Mozzi-master\mozzi_rand.cpp.o
rand(unsigned int)                                D:\projects\arduino\buildtemp\libraries\Mozzi-master\mozzi_rand.cpp.o
rand(unsigned int, unsigned int)                  D:\projects\arduino\buildtemp\libraries\Mozzi-master\mozzi_rand.cpp.o
randMidiNote()                                    D:\projects\arduino\buildtemp\libraries\Mozzi-master\mozzi_rand.cpp.o
randSeed()                                        D:\projects\arduino\buildtemp\libraries\Mozzi-master\mozzi_rand.cpp.o
randSeed(long)                                    D:\projects\arduino\buildtemp\libraries\Mozzi-master\mozzi_rand.cpp.o
raw_key_bits                                      D:\projects\arduino\buildtemp\sketch\Stylish.pde.cpp.o
raw_key_down                                      D:\projects\arduino\buildtemp\sketch\Stylish.pde.cpp.o
rcc_clk_disable                                   D:\projects\arduino\buildtemp\core\core.a(rcc_f1.c.o)
                                                  D:\projects\arduino\buildtemp\core\wirish\boards_setup.cpp.o
rcc_clk_enable                                    D:\projects\arduino\buildtemp\core\core.a(rcc_f1.c.o)
                                                  D:\projects\arduino\buildtemp\core\core.a(i2c.c.o)
                                                  D:\projects\arduino\buildtemp\core\core.a(gpio.c.o)
                                                  D:\projects\arduino\buildtemp\core\core.a(bkp_f1.c.o)
                                                  D:\projects\arduino\buildtemp\core\core.a(usb.c.o)
                                                  D:\projects\arduino\buildtemp\core\core.a(usart.c.o)
                                                  D:\projects\arduino\buildtemp\core\core.a(timer.c.o)
                                                  D:\projects\arduino\buildtemp\core\core.a(spi.c.o)
                                                  D:\projects\arduino\buildtemp\core\core.a(gpio_f1.c.o)
                                                  D:\projects\arduino\buildtemp\core\core.a(dma.c.o)
                                                  D:\projects\arduino\buildtemp\core\core.a(adc.c.o)
rcc_clk_init                                      D:\projects\arduino\buildtemp\core\core.a(rcc_f1.c.o)
rcc_configure_pll                                 D:\projects\arduino\buildtemp\core\core.a(rcc_f1.c.o)
                                                  D:\projects\arduino\buildtemp\core\wirish\boards.cpp.o
rcc_dev_clk                                       D:\projects\arduino\buildtemp\core\core.a(rcc.c.o)
                                                  D:\projects\arduino\buildtemp\core\core.a(usart_private.c.o)
                                                  D:\projects\arduino\buildtemp\core\core.a(rcc_f1.c.o)
                                                  D:\projects\arduino\buildtemp\libraries\SPI\SPI.cpp.o
rcc_dev_table                                     D:\projects\arduino\buildtemp\core\core.a(rcc_f1.c.o)
                                                  D:\projects\arduino\buildtemp\core\core.a(rcc.c.o)
rcc_is_clk_on                                     D:\projects\arduino\buildtemp\core\core.a(rcc.c.o)
rcc_is_clk_ready                                  D:\projects\arduino\buildtemp\core\core.a(rcc.c.o)
                                                  D:\projects\arduino\buildtemp\core\core.a(rcc_f1.c.o)
                                                  D:\projects\arduino\buildtemp\core\wirish\boards.cpp.o
rcc_reset_dev                                     D:\projects\arduino\buildtemp\core\core.a(rcc_f1.c.o)
                                                  D:\projects\arduino\buildtemp\core\core.a(i2c.c.o)
                                                  D:\projects\arduino\buildtemp\core\core.a(gpio.c.o)
                                                  D:\projects\arduino\buildtemp\core\core.a(bkp_f1.c.o)
                                                  D:\projects\arduino\buildtemp\core\core.a(timer.c.o)
                                                  D:\projects\arduino\buildtemp\core\core.a(spi.c.o)
                                                  D:\projects\arduino\buildtemp\core\core.a(gpio_f1.c.o)
                                                  D:\projects\arduino\buildtemp\core\core.a(adc.c.o)
rcc_set_prescaler                                 D:\projects\arduino\buildtemp\core\core.a(rcc_f1.c.o)
                                                  D:\projects\arduino\buildtemp\core\core.a(adc_f1.c.o)
                                                  D:\projects\arduino\buildtemp\core\wirish\boards_setup.cpp.o
rcc_switch_sysclk                                 D:\projects\arduino\buildtemp\core\core.a(rcc.c.o)
                                                  D:\projects\arduino\buildtemp\core\core.a(rcc_f1.c.o)
                                                  D:\projects\arduino\buildtemp\core\wirish\boards.cpp.o
rcc_turn_off_clk                                  D:\projects\arduino\buildtemp\core\core.a(rcc.c.o)
                                                  D:\projects\arduino\buildtemp\core\wirish\boards.cpp.o
rcc_turn_on_clk                                   D:\projects\arduino\buildtemp\core\core.a(rcc.c.o)
                                                  D:\projects\arduino\buildtemp\core\core.a(rcc_f1.c.o)
                                                  D:\projects\arduino\buildtemp\core\wirish\boards.cpp.o
receiveSecondControlADC()                         D:\projects\arduino\buildtemp\libraries\Mozzi-master\mozzi_analog.cpp.o
reconnectDigitalIn(unsigned char)                 D:\projects\arduino\buildtemp\libraries\Mozzi-master\mozzi_analog.cpp.o
rgb_t::operator*(unsigned char const&)            D:\projects\arduino\buildtemp\sketch\rgb.cpp.o
rgb_t::operator*=(unsigned short const&)          D:\projects\arduino\buildtemp\sketch\rgb.cpp.o
                                                  D:\projects\arduino\buildtemp\sketch\Stylish.pde.cpp.o
rgb_t::operator+(rgb_t const&)                    D:\projects\arduino\buildtemp\sketch\rgb.cpp.o
rgb_t::operator+=(rgb_t const&)                   D:\projects\arduino\buildtemp\sketch\rgb.cpp.o
                                                  D:\projects\arduino\buildtemp\sketch\Stylish.pde.cpp.o
rgb_t::operator-(rgb_t const&)                    D:\projects\arduino\buildtemp\sketch\rgb.cpp.o
rgb_t::operator-=(rgb_t const&)                   D:\projects\arduino\buildtemp\sketch\rgb.cpp.o
                                                  D:\projects\arduino\buildtemp\sketch\Stylish.pde.cpp.o
rgb_t::operator/(unsigned char const&)            D:\projects\arduino\buildtemp\sketch\rgb.cpp.o
rgb_t::rgb_t(unsigned char, unsigned char, unsigned char) D:\projects\arduino\buildtemp\sketch\rgb.cpp.o
rgb_t::rgb_t(unsigned char, unsigned char, unsigned char) D:\projects\arduino\buildtemp\sketch\rgb.cpp.o
                                                  D:\projects\arduino\buildtemp\sketch\Stylish.pde.cpp.o
rint                                              c:/users/softegg/appdata/local/arduino15/packages/arduino/tools/arm-none-eabi-gcc/4.8.3-2014q1/bin/../lib/gcc/arm-none-eabi/4.8.3/../../../../arm-none-eabi/lib/armv7-m\libm.a(lib_a-s_rint.o)
                                                  c:/users/softegg/appdata/local/arduino15/packages/arduino/tools/arm-none-eabi-gcc/4.8.3-2014q1/bin/../lib/gcc/arm-none-eabi/4.8.3/../../../../arm-none-eabi/lib/armv7-m\libm.a(lib_a-w_pow.o)
scalbn                                            c:/users/softegg/appdata/local/arduino15/packages/arduino/tools/arm-none-eabi-gcc/4.8.3-2014q1/bin/../lib/gcc/arm-none-eabi/4.8.3/../../../../arm-none-eabi/lib/armv7-m\libm.a(lib_a-s_scalbn.o)
                                                  c:/users/softegg/appdata/local/arduino15/packages/arduino/tools/arm-none-eabi-gcc/4.8.3-2014q1/bin/../lib/gcc/arm-none-eabi/4.8.3/../../../../arm-none-eabi/lib/armv7-m\libm.a(lib_a-e_pow.o)
set_awd_channel                                   D:\projects\arduino\buildtemp\libraries\STM32ADC\utility\util_adc.c.o
set_awd_channel(adc_dev*, unsigned char)          D:\projects\arduino\buildtemp\libraries\STM32ADC\STM32ADC.cpp.o
set_awd_high_limit                                D:\projects\arduino\buildtemp\libraries\STM32ADC\utility\util_adc.c.o
set_awd_high_limit(adc_dev*, unsigned long)       D:\projects\arduino\buildtemp\libraries\STM32ADC\STM32ADC.cpp.o
set_awd_low_limit                                 D:\projects\arduino\buildtemp\libraries\STM32ADC\utility\util_adc.c.o
set_awd_low_limit(adc_dev*, unsigned long)        D:\projects\arduino\buildtemp\libraries\STM32ADC\STM32ADC.cpp.o
setup()                                           D:\projects\arduino\buildtemp\sketch\Stylish.pde.cpp.o
                                                  D:\projects\arduino\buildtemp\core\core.a(main.cpp.o)
setupFLASH()                                      D:\projects\arduino\buildtemp\sketch\flashwriter.cpp.o
                                                  D:\projects\arduino\buildtemp\sketch\Stylish.pde.cpp.o
setupFastAnalogRead(signed char)                  D:\projects\arduino\buildtemp\libraries\Mozzi-master\mozzi_analog.cpp.o
setupMozziADC(signed char)                        D:\projects\arduino\buildtemp\libraries\Mozzi-master\mozzi_analog.cpp.o
                                                  D:\projects\arduino\buildtemp\libraries\Mozzi-master\MozziGuts.cpp.o
software_init_hook                                c:/users/softegg/appdata/local/arduino15/packages/arduino/tools/arm-none-eabi-gcc/4.8.3-2014q1/bin/../lib/gcc/arm-none-eabi/4.8.3/../../../../arm-none-eabi/lib/armv7-m/crt0.o
spi_config_gpios                                  D:\projects\arduino\buildtemp\core\core.a(spi_f1.c.o)
                                                  D:\projects\arduino\buildtemp\libraries\SPI\SPI.cpp.o
spi_foreach                                       D:\projects\arduino\buildtemp\core\core.a(spi_f1.c.o)
spi_init                                          D:\projects\arduino\buildtemp\core\core.a(spi.c.o)
                                                  D:\projects\arduino\buildtemp\libraries\SPI\SPI.cpp.o
spi_master_enable                                 D:\projects\arduino\buildtemp\core\core.a(spi.c.o)
                                                  D:\projects\arduino\buildtemp\libraries\SPI\SPI.cpp.o
spi_peripheral_disable                            D:\projects\arduino\buildtemp\core\core.a(spi.c.o)
                                                  D:\projects\arduino\buildtemp\libraries\SPI\SPI.cpp.o
spi_peripheral_enable                             D:\projects\arduino\buildtemp\core\core.a(spi.c.o)
spi_rx_dma_disable                                D:\projects\arduino\buildtemp\core\core.a(spi.c.o)
                                                  D:\projects\arduino\buildtemp\libraries\SPI\SPI.cpp.o
spi_rx_dma_enable                                 D:\projects\arduino\buildtemp\core\core.a(spi.c.o)
                                                  D:\projects\arduino\buildtemp\libraries\SPI\SPI.cpp.o
spi_slave_enable                                  D:\projects\arduino\buildtemp\core\core.a(spi.c.o)
                                                  D:\projects\arduino\buildtemp\libraries\SPI\SPI.cpp.o
spi_tx                                            D:\projects\arduino\buildtemp\core\core.a(spi.c.o)
                                                  D:\projects\arduino\buildtemp\libraries\SPI\SPI.cpp.o
spi_tx_dma_disable                                D:\projects\arduino\buildtemp\core\core.a(spi.c.o)
                                                  D:\projects\arduino\buildtemp\libraries\SPI\SPI.cpp.o
spi_tx_dma_enable                                 D:\projects\arduino\buildtemp\core\core.a(spi.c.o)
                                                  D:\projects\arduino\buildtemp\libraries\SPI\SPI.cpp.o
stable_counter                                    D:\projects\arduino\buildtemp\sketch\Stylish.pde.cpp.o
startMozzi(int)                                   D:\projects\arduino\buildtemp\libraries\Mozzi-master\MozziGuts.cpp.o
                                                  D:\projects\arduino\buildtemp\sketch\Stylish.pde.cpp.o
startSecondControlADC()                           D:\projects\arduino\buildtemp\libraries\Mozzi-master\mozzi_analog.cpp.o
start_c                                           D:\projects\arduino\buildtemp\core\wirish\start_c.c.o
                                                  D:\projects\arduino\buildtemp\core\wirish\start.S.o
start_continuous_convert                          D:\projects\arduino\buildtemp\libraries\STM32ADC\utility\util_adc.c.o
start_single_convert                              D:\projects\arduino\buildtemp\libraries\STM32ADC\utility\util_adc.c.o
state                                             D:\projects\arduino\buildtemp\sketch\Stylish.pde.cpp.o
stm32_adc_eoc_handler()                           D:\projects\arduino\buildtemp\libraries\Mozzi-master\mozzi_analog.cpp.o
stm32_current_adc_pin                             D:\projects\arduino\buildtemp\libraries\Mozzi-master\MozziGuts.cpp.o
                                                  D:\projects\arduino\buildtemp\libraries\Mozzi-master\mozzi_analog.cpp.o
stopMozzi()                                       D:\projects\arduino\buildtemp\libraries\Mozzi-master\MozziGuts.cpp.o
strip                                             D:\projects\arduino\buildtemp\sketch\Stylish.pde.cpp.o
strlen                                            c:/users/softegg/appdata/local/arduino15/packages/arduino/tools/arm-none-eabi-gcc/4.8.3-2014q1/bin/../lib/gcc/arm-none-eabi/4.8.3/../../../../arm-none-eabi/lib/armv7-m\libc.a(lib_a-strlen.o)
                                                  D:\projects\arduino\buildtemp\core\core.a(usb_serial.cpp.o)
                                                  D:\projects\arduino\buildtemp\core\core.a(Print.cpp.o)
subState                                          D:\projects\arduino\buildtemp\sketch\Stylish.pde.cpp.o
systick_attach_callback                           D:\projects\arduino\buildtemp\core\core.a(systick.c.o)
systick_disable                                   D:\projects\arduino\buildtemp\core\core.a(systick.c.o)
systick_enable                                    D:\projects\arduino\buildtemp\core\core.a(systick.c.o)
systick_init                                      D:\projects\arduino\buildtemp\core\core.a(systick.c.o)
                                                  D:\projects\arduino\buildtemp\core\wirish\boards.cpp.o
systick_uptime_millis                             D:\projects\arduino\buildtemp\core\core.a(i2c.c.o)
                                                  D:\projects\arduino\buildtemp\core\core.a(usb_serial.cpp.o)
                                                  D:\projects\arduino\buildtemp\core\core.a(systick.c.o)
                                                  D:\projects\arduino\buildtemp\libraries\SPI\SPI.cpp.o
throb                                             D:\projects\arduino\buildtemp\core\core.a(util.c.o)
timer1                                            D:\projects\arduino\buildtemp\core\core.a(timer.c.o)
                                                  D:\projects\arduino\buildtemp\core\board.cpp.o
timer2                                            D:\projects\arduino\buildtemp\core\core.a(timer.c.o)
                                                  D:\projects\arduino\buildtemp\core\board.cpp.o
timer3                                            D:\projects\arduino\buildtemp\core\core.a(timer.c.o)
                                                  D:\projects\arduino\buildtemp\core\board.cpp.o
timer4                                            D:\projects\arduino\buildtemp\core\core.a(timer.c.o)
                                                  D:\projects\arduino\buildtemp\core\board.cpp.o
timer_attach_interrupt                            D:\projects\arduino\buildtemp\core\core.a(timer.c.o)
                                                  D:\projects\arduino\buildtemp\core\core.a(HardwareTimer.cpp.o)
timer_detach_interrupt                            D:\projects\arduino\buildtemp\core\core.a(timer.c.o)
                                                  D:\projects\arduino\buildtemp\core\core.a(HardwareTimer.cpp.o)
timer_disable                                     D:\projects\arduino\buildtemp\core\core.a(timer.c.o)
timer_foreach                                     D:\projects\arduino\buildtemp\core\core.a(timer.c.o)
                                                  D:\projects\arduino\buildtemp\core\core.a(HardwareTimer.cpp.o)
                                                  D:\projects\arduino\buildtemp\core\wirish\boards.cpp.o
timer_has_cc_channel                              D:\projects\arduino\buildtemp\core\core.a(timer.c.o)
                                                  D:\projects\arduino\buildtemp\core\wirish\boards.cpp.o
timer_init                                        D:\projects\arduino\buildtemp\core\core.a(timer.c.o)
                                                  D:\projects\arduino\buildtemp\core\wirish\boards.cpp.o
timer_set_mode                                    D:\projects\arduino\buildtemp\core\core.a(timer.c.o)
                                                  D:\projects\arduino\buildtemp\core\core.a(wirish_digital_f1.cpp.o)
                                                  D:\projects\arduino\buildtemp\core\core.a(HardwareTimer.cpp.o)
                                                  D:\projects\arduino\buildtemp\core\core.a(HardwareSerial.cpp.o)
                                                  D:\projects\arduino\buildtemp\libraries\SPI\SPI.cpp.o
trailingZeros(unsigned long)                      D:\projects\arduino\buildtemp\libraries\Mozzi-master\mozzi_utils.cpp.o
uint8_tDiv(unsigned char, unsigned char)          D:\projects\arduino\buildtemp\libraries\Mozzi-master\mozzi_fixmath.cpp.o
uint8_tMod(unsigned char, unsigned char)          D:\projects\arduino\buildtemp\libraries\Mozzi-master\mozzi_fixmath.cpp.o
uint8_tRnd(unsigned char, unsigned char)          D:\projects\arduino\buildtemp\libraries\Mozzi-master\mozzi_fixmath.cpp.o
updateAudio()                                     D:\projects\arduino\buildtemp\sketch\Stylish.pde.cpp.o
                                                  D:\projects\arduino\buildtemp\libraries\Mozzi-master\MozziGuts.cpp.o
updateControl()                                   D:\projects\arduino\buildtemp\sketch\Stylish.pde.cpp.o
                                                  D:\projects\arduino\buildtemp\libraries\Mozzi-master\MozziGuts.cpp.o
usart_config_gpios_async                          D:\projects\arduino\buildtemp\core\core.a(usart_f1.c.o)
                                                  D:\projects\arduino\buildtemp\core\core.a(HardwareSerial.cpp.o)
usart_disable                                     D:\projects\arduino\buildtemp\core\core.a(usart.c.o)
                                                  D:\projects\arduino\buildtemp\core\core.a(HardwareSerial.cpp.o)
usart_enable                                      D:\projects\arduino\buildtemp\core\core.a(usart.c.o)
                                                  D:\projects\arduino\buildtemp\core\core.a(HardwareSerial.cpp.o)
usart_foreach                                     D:\projects\arduino\buildtemp\core\core.a(usart_f1.c.o)
usart_init                                        D:\projects\arduino\buildtemp\core\core.a(usart.c.o)
                                                  D:\projects\arduino\buildtemp\core\core.a(HardwareSerial.cpp.o)
usart_putudec                                     D:\projects\arduino\buildtemp\core\core.a(usart.c.o)
                                                  D:\projects\arduino\buildtemp\core\core.a(util.c.o)
usart_rx                                          D:\projects\arduino\buildtemp\core\core.a(usart.c.o)
usart_set_baud_rate                               D:\projects\arduino\buildtemp\core\core.a(usart_f1.c.o)
                                                  D:\projects\arduino\buildtemp\core\core.a(HardwareSerial.cpp.o)
usart_tx                                          D:\projects\arduino\buildtemp\core\core.a(usart.c.o)
                                                  D:\projects\arduino\buildtemp\core\core.a(util.c.o)
                                                  D:\projects\arduino\buildtemp\core\core.a(HardwareSerial.cpp.o)
usb_cdcacm_data_available                         D:\projects\arduino\buildtemp\core\core.a(usb_cdcacm.c.o)
                                                  D:\projects\arduino\buildtemp\core\core.a(usb_serial.cpp.o)
usb_cdcacm_disable                                D:\projects\arduino\buildtemp\core\core.a(usb_cdcacm.c.o)
                                                  D:\projects\arduino\buildtemp\core\core.a(usb_serial.cpp.o)
usb_cdcacm_enable                                 D:\projects\arduino\buildtemp\core\core.a(usb_cdcacm.c.o)
                                                  D:\projects\arduino\buildtemp\core\core.a(usb_serial.cpp.o)
usb_cdcacm_get_baud                               D:\projects\arduino\buildtemp\core\core.a(usb_cdcacm.c.o)
usb_cdcacm_get_dtr                                D:\projects\arduino\buildtemp\core\core.a(usb_cdcacm.c.o)
                                                  D:\projects\arduino\buildtemp\core\core.a(usb_serial.cpp.o)
usb_cdcacm_get_line_coding                        D:\projects\arduino\buildtemp\core\core.a(usb_cdcacm.c.o)
usb_cdcacm_get_n_data_bits                        D:\projects\arduino\buildtemp\core\core.a(usb_cdcacm.c.o)
usb_cdcacm_get_parity                             D:\projects\arduino\buildtemp\core\core.a(usb_cdcacm.c.o)
usb_cdcacm_get_pending                            D:\projects\arduino\buildtemp\core\core.a(usb_cdcacm.c.o)
                                                  D:\projects\arduino\buildtemp\core\core.a(usb_serial.cpp.o)
usb_cdcacm_get_rts                                D:\projects\arduino\buildtemp\core\core.a(usb_cdcacm.c.o)
                                                  D:\projects\arduino\buildtemp\core\core.a(usb_serial.cpp.o)
usb_cdcacm_get_stop_bits                          D:\projects\arduino\buildtemp\core\core.a(usb_cdcacm.c.o)
usb_cdcacm_is_transmitting                        D:\projects\arduino\buildtemp\core\core.a(usb_cdcacm.c.o)
usb_cdcacm_peek                                   D:\projects\arduino\buildtemp\core\core.a(usb_cdcacm.c.o)
                                                  D:\projects\arduino\buildtemp\core\core.a(usb_serial.cpp.o)
usb_cdcacm_peek_char                              D:\projects\arduino\buildtemp\core\core.a(usb_cdcacm.c.o)
usb_cdcacm_peek_ex                                D:\projects\arduino\buildtemp\core\core.a(usb_cdcacm.c.o)
                                                  D:\projects\arduino\buildtemp\core\core.a(usb_serial.cpp.o)
usb_cdcacm_putc                                   D:\projects\arduino\buildtemp\core\core.a(usb_cdcacm.c.o)
usb_cdcacm_rx                                     D:\projects\arduino\buildtemp\core\core.a(usb_cdcacm.c.o)
                                                  D:\projects\arduino\buildtemp\core\core.a(usb_serial.cpp.o)
usb_cdcacm_set_hooks                              D:\projects\arduino\buildtemp\core\core.a(usb_cdcacm.c.o)
                                                  D:\projects\arduino\buildtemp\core\core.a(usb_serial.cpp.o)
usb_cdcacm_tx                                     D:\projects\arduino\buildtemp\core\core.a(usb_cdcacm.c.o)
                                                  D:\projects\arduino\buildtemp\core\core.a(usb_serial.cpp.o)
usb_cdcacm_tx_available                           D:\projects\arduino\buildtemp\core\core.a(usb_cdcacm.c.o)
                                                  D:\projects\arduino\buildtemp\core\core.a(usb_serial.cpp.o)
usb_init_usblib                                   D:\projects\arduino\buildtemp\core\core.a(usb.c.o)
                                                  D:\projects\arduino\buildtemp\core\core.a(usb_cdcacm.c.o)
usb_power_off                                     D:\projects\arduino\buildtemp\core\core.a(usb.c.o)
                                                  D:\projects\arduino\buildtemp\core\core.a(usb_cdcacm.c.o)
usb_set_ep_rx_count                               D:\projects\arduino\buildtemp\core\core.a(usb_reg_map.c.o)
                                                  D:\projects\arduino\buildtemp\core\core.a(usb_cdcacm.c.o)
vtable for HardwareSerial                         D:\projects\arduino\buildtemp\core\core.a(HardwareSerial.cpp.o)
vtable for Print                                  D:\projects\arduino\buildtemp\core\core.a(Print.cpp.o)
vtable for Stream                                 D:\projects\arduino\buildtemp\core\core.a(HardwareSerial.cpp.o)
                                                  D:\projects\arduino\buildtemp\core\core.a(usb_serial.cpp.o)
vtable for USBSerial                              D:\projects\arduino\buildtemp\core\core.a(usb_serial.cpp.o)
wInterrupt_Mask                                   D:\projects\arduino\buildtemp\core\core.a(usb_init.c.o)
wTransferSize                                     D:\projects\arduino\buildtemp\sketch\flashwriter.cpp.o
wirish::priv::board_reset_pll()                   D:\projects\arduino\buildtemp\core\wirish\boards_setup.cpp.o
                                                  D:\projects\arduino\buildtemp\core\wirish\boards.cpp.o
wirish::priv::board_setup_clock_prescalers()      D:\projects\arduino\buildtemp\core\wirish\boards_setup.cpp.o
                                                  D:\projects\arduino\buildtemp\core\wirish\boards.cpp.o
wirish::priv::board_setup_gpio()                  D:\projects\arduino\buildtemp\core\wirish\boards_setup.cpp.o
                                                  D:\projects\arduino\buildtemp\core\wirish\boards.cpp.o
wirish::priv::board_setup_usb()                   D:\projects\arduino\buildtemp\core\wirish\boards_setup.cpp.o
                                                  D:\projects\arduino\buildtemp\core\wirish\boards.cpp.o
wirish::priv::series_init()                       D:\projects\arduino\buildtemp\core\wirish\boards_setup.cpp.o
                                                  D:\projects\arduino\buildtemp\core\wirish\boards.cpp.o
wirish::priv::w_adc_pre                           D:\projects\arduino\buildtemp\core\wirish\boards_setup.cpp.o
                                                  D:\projects\arduino\buildtemp\core\wirish\boards.cpp.o
wirish::priv::w_adc_smp                           D:\projects\arduino\buildtemp\core\wirish\boards_setup.cpp.o
                                                  D:\projects\arduino\buildtemp\core\wirish\boards.cpp.o
wirish::priv::w_board_pll_cfg                     D:\projects\arduino\buildtemp\core\wirish\boards_setup.cpp.o
                                                  D:\projects\arduino\buildtemp\core\wirish\boards.cpp.o
workPixels                                        D:\projects\arduino\buildtemp\sketch\Stylish.pde.cpp.o
xorshift96()                                      D:\projects\arduino\buildtemp\libraries\Mozzi-master\mozzi_rand.cpp.o
xorshiftSeed(long)                                D:\projects\arduino\buildtemp\libraries\Mozzi-master\mozzi_rand.cpp.o
